

Microchip MPLAB XC8 Assembler V2.10 build 88905656 
                                                                                               Fri May 01 16:42:46 2020

Microchip MPLAB XC8 C Compiler v2.10 (Free license) build 20190730164152 Og1 
     1                           	processor	16F15355
     2                           	opt	pw 120
     3                           	opt	flic
     4                           	psect	nvBANK0,global,class=BANK0,space=1,delta=1
     5                           	psect	cinit,global,class=CODE,merge=1,delta=2
     6                           	psect	bssCOMMON,global,class=COMMON,space=1,delta=1
     7                           	psect	bssBANK0,global,class=BANK0,space=1,delta=1
     8                           	psect	cstackCOMMON,global,class=COMMON,space=1,delta=1
     9                           	psect	cstackBANK0,global,class=BANK0,space=1,delta=1
    10                           	psect	maintext,global,class=CODE,merge=1,split=1,delta=2
    11                           	psect	text1,local,class=CODE,merge=1,delta=2
    12                           	psect	text2,local,class=CODE,merge=1,delta=2
    13                           	psect	text3,local,class=CODE,merge=1,delta=2
    14                           	psect	text4,local,class=CODE,merge=1,delta=2
    15                           	psect	text5,local,class=CODE,merge=1,delta=2
    16                           	psect	text6,local,class=CODE,merge=1,delta=2
    17                           	psect	text7,local,class=CODE,merge=1,delta=2
    18                           	psect	text8,local,class=CODE,merge=1,delta=2
    19                           	psect	text9,local,class=CODE,merge=1,delta=2
    20                           	psect	text10,local,class=CODE,merge=1,delta=2
    21                           	psect	text11,local,class=CODE,merge=1,delta=2
    22                           	psect	text12,local,class=CODE,merge=1,delta=2
    23                           	psect	text13,local,class=CODE,merge=1,delta=2
    24                           	psect	text14,local,class=CODE,merge=1,delta=2
    25                           	psect	text15,local,class=CODE,merge=1,delta=2
    26                           	psect	text16,local,class=CODE,merge=1,delta=2
    27                           	psect	text17,local,class=CODE,merge=1,delta=2
    28                           	psect	text18,local,class=CODE,merge=1,delta=2
    29                           	psect	intentry,global,class=CODE,delta=2
    30                           	psect	text20,local,class=CODE,merge=1,delta=2
    31                           	psect	text21,local,class=CODE,merge=1,delta=2
    32                           	psect	text22,local,class=CODE,merge=1,delta=2
    33                           	psect	text23,local,class=CODE,merge=1,delta=2
    34                           	dabs	1,0x7E,2
    35  0000                     
    36                           ; Version 2.10
    37                           ; Generated 31/07/2019 GMT
    38                           ; 
    39                           ; Copyright © 2019, Microchip Technology Inc. and its subsidiaries ("Microchip")
    40                           ; All rights reserved.
    41                           ; 
    42                           ; This software is developed by Microchip Technology Inc. and its subsidiaries ("Microch
      +                          ip").
    43                           ; 
    44                           ; Redistribution and use in source and binary forms, with or without modification, are
    45                           ; permitted provided that the following conditions are met:
    46                           ; 
    47                           ;     1. Redistributions of source code must retain the above copyright notice, this lis
      +                          t of
    48                           ;        conditions and the following disclaimer.
    49                           ; 
    50                           ;     2. Redistributions in binary form must reproduce the above copyright notice, this 
      +                          list
    51                           ;        of conditions and the following disclaimer in the documentation and/or other
    52                           ;        materials provided with the distribution.
    53                           ; 
    54                           ;     3. Microchip's name may not be used to endorse or promote products derived from th
      +                          is
    55                           ;        software without specific prior written permission.
    56                           ; 
    57                           ; THIS SOFTWARE IS PROVIDED BY MICROCHIP "AS IS" AND ANY EXPRESS OR IMPLIED WARRANTIES,
    58                           ; INCLUDING, BUT NOT LIMITED TO, THE IMPLIED WARRANTIES OF MERCHANTABILITY AND FITNESS F
      +                          OR
    59                           ; PURPOSE ARE DISCLAIMED.  IN NO EVENT SHALL MICROCHIP BE LIABLE FOR ANY DIRECT, INDIREC
      +                          T,
    60                           ; INCIDENTAL, SPECIAL, EXEMPLARY, OR CONSEQUENTIAL DAMAGES (INCLUDING BUT NOT LIMITED TO
    61                           ; PROCUREMENT OF SUBSTITUTE GOODS OR SERVICES; LOSS OF USE, DATA OR PROFITS; OR BUSINESS
    62                           ; INTERRUPTION) HOWSOEVER CAUSED AND ON ANY THEORY OF LIABILITY, WHETHER IN CONTRACT, ST
      +                          RICT
    63                           ; LIABILITY, OR TORT (INCLUDING NEGLIGENCE OR OTHERWISE) ARISING IN ANY WAY OUT OF THE U
      +                          SE OF
    64                           ; THIS SOFTWARE, EVEN IF ADVISED OF THE POSSIBILITY OF SUCH DAMAGE.
    65                           ; 
    66                           ; 
    67                           ; Code-generator required, PIC16F15355 Definitions
    68                           ; 
    69                           ; SFR Addresses
    70  0000                     	;# 
    71  0001                     	;# 
    72  0002                     	;# 
    73  0003                     	;# 
    74  0004                     	;# 
    75  0005                     	;# 
    76  0006                     	;# 
    77  0007                     	;# 
    78  0008                     	;# 
    79  0009                     	;# 
    80  000A                     	;# 
    81  000B                     	;# 
    82  000C                     	;# 
    83  000D                     	;# 
    84  000E                     	;# 
    85  0010                     	;# 
    86  0012                     	;# 
    87  0013                     	;# 
    88  0014                     	;# 
    89  0016                     	;# 
    90  0018                     	;# 
    91  0019                     	;# 
    92  001A                     	;# 
    93  009B                     	;# 
    94  009B                     	;# 
    95  009C                     	;# 
    96  009D                     	;# 
    97  009E                     	;# 
    98  009F                     	;# 
    99  0119                     	;# 
   100  0119                     	;# 
   101  0119                     	;# 
   102  011A                     	;# 
   103  011A                     	;# 
   104  011A                     	;# 
   105  011B                     	;# 
   106  011B                     	;# 
   107  011B                     	;# 
   108  011B                     	;# 
   109  011B                     	;# 
   110  011C                     	;# 
   111  011C                     	;# 
   112  011C                     	;# 
   113  011D                     	;# 
   114  011D                     	;# 
   115  011D                     	;# 
   116  011E                     	;# 
   117  011E                     	;# 
   118  011E                     	;# 
   119  011F                     	;# 
   120  011F                     	;# 
   121  011F                     	;# 
   122  011F                     	;# 
   123  011F                     	;# 
   124  018C                     	;# 
   125  018D                     	;# 
   126  018E                     	;# 
   127  018F                     	;# 
   128  0190                     	;# 
   129  0191                     	;# 
   130  0192                     	;# 
   131  0196                     	;# 
   132  0197                     	;# 
   133  0198                     	;# 
   134  0199                     	;# 
   135  019A                     	;# 
   136  019B                     	;# 
   137  019C                     	;# 
   138  020C                     	;# 
   139  020C                     	;# 
   140  020D                     	;# 
   141  020E                     	;# 
   142  020F                     	;# 
   143  020F                     	;# 
   144  0210                     	;# 
   145  0210                     	;# 
   146  0211                     	;# 
   147  0211                     	;# 
   148  028C                     	;# 
   149  028C                     	;# 
   150  028D                     	;# 
   151  028D                     	;# 
   152  028E                     	;# 
   153  028F                     	;# 
   154  0290                     	;# 
   155  0291                     	;# 
   156  030C                     	;# 
   157  030C                     	;# 
   158  030D                     	;# 
   159  030E                     	;# 
   160  030F                     	;# 
   161  0310                     	;# 
   162  0310                     	;# 
   163  0311                     	;# 
   164  0312                     	;# 
   165  0313                     	;# 
   166  0314                     	;# 
   167  0314                     	;# 
   168  0315                     	;# 
   169  0316                     	;# 
   170  0318                     	;# 
   171  0318                     	;# 
   172  0319                     	;# 
   173  031A                     	;# 
   174  031C                     	;# 
   175  031C                     	;# 
   176  031D                     	;# 
   177  031E                     	;# 
   178  038C                     	;# 
   179  038C                     	;# 
   180  038D                     	;# 
   181  038E                     	;# 
   182  058C                     	;# 
   183  058C                     	;# 
   184  058D                     	;# 
   185  058E                     	;# 
   186  058F                     	;# 
   187  058F                     	;# 
   188  0590                     	;# 
   189  0591                     	;# 
   190  0592                     	;# 
   191  0593                     	;# 
   192  059C                     	;# 
   193  059C                     	;# 
   194  059D                     	;# 
   195  059D                     	;# 
   196  059E                     	;# 
   197  059F                     	;# 
   198  060C                     	;# 
   199  060D                     	;# 
   200  060E                     	;# 
   201  060F                     	;# 
   202  0610                     	;# 
   203  0611                     	;# 
   204  0612                     	;# 
   205  0613                     	;# 
   206  0614                     	;# 
   207  070C                     	;# 
   208  070D                     	;# 
   209  070E                     	;# 
   210  070F                     	;# 
   211  0710                     	;# 
   212  0711                     	;# 
   213  0712                     	;# 
   214  0713                     	;# 
   215  0716                     	;# 
   216  0717                     	;# 
   217  0718                     	;# 
   218  0719                     	;# 
   219  071A                     	;# 
   220  071B                     	;# 
   221  071C                     	;# 
   222  071D                     	;# 
   223  0796                     	;# 
   224  0797                     	;# 
   225  0798                     	;# 
   226  0799                     	;# 
   227  079A                     	;# 
   228  079B                     	;# 
   229  080C                     	;# 
   230  080D                     	;# 
   231  080E                     	;# 
   232  080F                     	;# 
   233  0810                     	;# 
   234  0811                     	;# 
   235  0812                     	;# 
   236  0813                     	;# 
   237  0814                     	;# 
   238  081A                     	;# 
   239  081A                     	;# 
   240  081B                     	;# 
   241  081C                     	;# 
   242  081C                     	;# 
   243  081D                     	;# 
   244  081E                     	;# 
   245  081F                     	;# 
   246  088C                     	;# 
   247  088D                     	;# 
   248  088E                     	;# 
   249  088F                     	;# 
   250  0890                     	;# 
   251  0891                     	;# 
   252  0892                     	;# 
   253  0893                     	;# 
   254  0895                     	;# 
   255  0896                     	;# 
   256  090C                     	;# 
   257  090E                     	;# 
   258  090F                     	;# 
   259  091F                     	;# 
   260  098F                     	;# 
   261  098F                     	;# 
   262  0990                     	;# 
   263  0991                     	;# 
   264  0992                     	;# 
   265  0993                     	;# 
   266  0994                     	;# 
   267  0995                     	;# 
   268  0996                     	;# 
   269  0997                     	;# 
   270  0A19                     	;# 
   271  0A19                     	;# 
   272  0A1A                     	;# 
   273  0A1A                     	;# 
   274  0A1B                     	;# 
   275  0A1B                     	;# 
   276  0A1B                     	;# 
   277  0A1C                     	;# 
   278  0A1C                     	;# 
   279  0A1D                     	;# 
   280  0A1D                     	;# 
   281  0A1E                     	;# 
   282  0A1E                     	;# 
   283  0A1F                     	;# 
   284  0A1F                     	;# 
   285  0A1F                     	;# 
   286  1E0F                     	;# 
   287  1E10                     	;# 
   288  1E11                     	;# 
   289  1E12                     	;# 
   290  1E13                     	;# 
   291  1E14                     	;# 
   292  1E15                     	;# 
   293  1E16                     	;# 
   294  1E17                     	;# 
   295  1E18                     	;# 
   296  1E19                     	;# 
   297  1E1A                     	;# 
   298  1E1B                     	;# 
   299  1E1C                     	;# 
   300  1E1D                     	;# 
   301  1E1E                     	;# 
   302  1E1F                     	;# 
   303  1E20                     	;# 
   304  1E21                     	;# 
   305  1E22                     	;# 
   306  1E23                     	;# 
   307  1E24                     	;# 
   308  1E25                     	;# 
   309  1E26                     	;# 
   310  1E27                     	;# 
   311  1E28                     	;# 
   312  1E29                     	;# 
   313  1E2A                     	;# 
   314  1E2B                     	;# 
   315  1E2C                     	;# 
   316  1E2D                     	;# 
   317  1E2E                     	;# 
   318  1E2F                     	;# 
   319  1E30                     	;# 
   320  1E31                     	;# 
   321  1E32                     	;# 
   322  1E33                     	;# 
   323  1E34                     	;# 
   324  1E35                     	;# 
   325  1E36                     	;# 
   326  1E37                     	;# 
   327  1E8F                     	;# 
   328  1E90                     	;# 
   329  1E91                     	;# 
   330  1E92                     	;# 
   331  1E93                     	;# 
   332  1E9C                     	;# 
   333  1EA1                     	;# 
   334  1EA2                     	;# 
   335  1EB1                     	;# 
   336  1EBB                     	;# 
   337  1EBC                     	;# 
   338  1EBD                     	;# 
   339  1EBE                     	;# 
   340  1EC3                     	;# 
   341  1EC5                     	;# 
   342  1EC6                     	;# 
   343  1EC7                     	;# 
   344  1EC8                     	;# 
   345  1EC9                     	;# 
   346  1ECA                     	;# 
   347  1ECB                     	;# 
   348  1ECC                     	;# 
   349  1ECD                     	;# 
   350  1ECE                     	;# 
   351  1F10                     	;# 
   352  1F11                     	;# 
   353  1F12                     	;# 
   354  1F13                     	;# 
   355  1F14                     	;# 
   356  1F15                     	;# 
   357  1F16                     	;# 
   358  1F17                     	;# 
   359  1F18                     	;# 
   360  1F19                     	;# 
   361  1F1A                     	;# 
   362  1F1B                     	;# 
   363  1F1C                     	;# 
   364  1F1D                     	;# 
   365  1F1E                     	;# 
   366  1F1F                     	;# 
   367  1F20                     	;# 
   368  1F21                     	;# 
   369  1F22                     	;# 
   370  1F23                     	;# 
   371  1F24                     	;# 
   372  1F25                     	;# 
   373  1F26                     	;# 
   374  1F27                     	;# 
   375  1F38                     	;# 
   376  1F39                     	;# 
   377  1F3A                     	;# 
   378  1F3B                     	;# 
   379  1F3C                     	;# 
   380  1F3D                     	;# 
   381  1F3E                     	;# 
   382  1F3F                     	;# 
   383  1F43                     	;# 
   384  1F44                     	;# 
   385  1F45                     	;# 
   386  1F46                     	;# 
   387  1F47                     	;# 
   388  1F48                     	;# 
   389  1F49                     	;# 
   390  1F4A                     	;# 
   391  1F4E                     	;# 
   392  1F4F                     	;# 
   393  1F50                     	;# 
   394  1F51                     	;# 
   395  1F52                     	;# 
   396  1F53                     	;# 
   397  1F54                     	;# 
   398  1F55                     	;# 
   399  1F65                     	;# 
   400  1F68                     	;# 
   401  1F69                     	;# 
   402  1F6A                     	;# 
   403  1F6B                     	;# 
   404  1FE4                     	;# 
   405  1FE5                     	;# 
   406  1FE6                     	;# 
   407  1FE7                     	;# 
   408  1FE8                     	;# 
   409  1FE8                     	;# 
   410  1FE9                     	;# 
   411  1FEA                     	;# 
   412  1FEA                     	;# 
   413  1FEB                     	;# 
   414  1FED                     	;# 
   415  1FEE                     	;# 
   416  1FEF                     	;# 
   417  0000                     	;# 
   418  0001                     	;# 
   419  0002                     	;# 
   420  0003                     	;# 
   421  0004                     	;# 
   422  0005                     	;# 
   423  0006                     	;# 
   424  0007                     	;# 
   425  0008                     	;# 
   426  0009                     	;# 
   427  000A                     	;# 
   428  000B                     	;# 
   429  000C                     	;# 
   430  000D                     	;# 
   431  000E                     	;# 
   432  0010                     	;# 
   433  0012                     	;# 
   434  0013                     	;# 
   435  0014                     	;# 
   436  0016                     	;# 
   437  0018                     	;# 
   438  0019                     	;# 
   439  001A                     	;# 
   440  009B                     	;# 
   441  009B                     	;# 
   442  009C                     	;# 
   443  009D                     	;# 
   444  009E                     	;# 
   445  009F                     	;# 
   446  0119                     	;# 
   447  0119                     	;# 
   448  0119                     	;# 
   449  011A                     	;# 
   450  011A                     	;# 
   451  011A                     	;# 
   452  011B                     	;# 
   453  011B                     	;# 
   454  011B                     	;# 
   455  011B                     	;# 
   456  011B                     	;# 
   457  011C                     	;# 
   458  011C                     	;# 
   459  011C                     	;# 
   460  011D                     	;# 
   461  011D                     	;# 
   462  011D                     	;# 
   463  011E                     	;# 
   464  011E                     	;# 
   465  011E                     	;# 
   466  011F                     	;# 
   467  011F                     	;# 
   468  011F                     	;# 
   469  011F                     	;# 
   470  011F                     	;# 
   471  018C                     	;# 
   472  018D                     	;# 
   473  018E                     	;# 
   474  018F                     	;# 
   475  0190                     	;# 
   476  0191                     	;# 
   477  0192                     	;# 
   478  0196                     	;# 
   479  0197                     	;# 
   480  0198                     	;# 
   481  0199                     	;# 
   482  019A                     	;# 
   483  019B                     	;# 
   484  019C                     	;# 
   485  020C                     	;# 
   486  020C                     	;# 
   487  020D                     	;# 
   488  020E                     	;# 
   489  020F                     	;# 
   490  020F                     	;# 
   491  0210                     	;# 
   492  0210                     	;# 
   493  0211                     	;# 
   494  0211                     	;# 
   495  028C                     	;# 
   496  028C                     	;# 
   497  028D                     	;# 
   498  028D                     	;# 
   499  028E                     	;# 
   500  028F                     	;# 
   501  0290                     	;# 
   502  0291                     	;# 
   503  030C                     	;# 
   504  030C                     	;# 
   505  030D                     	;# 
   506  030E                     	;# 
   507  030F                     	;# 
   508  0310                     	;# 
   509  0310                     	;# 
   510  0311                     	;# 
   511  0312                     	;# 
   512  0313                     	;# 
   513  0314                     	;# 
   514  0314                     	;# 
   515  0315                     	;# 
   516  0316                     	;# 
   517  0318                     	;# 
   518  0318                     	;# 
   519  0319                     	;# 
   520  031A                     	;# 
   521  031C                     	;# 
   522  031C                     	;# 
   523  031D                     	;# 
   524  031E                     	;# 
   525  038C                     	;# 
   526  038C                     	;# 
   527  038D                     	;# 
   528  038E                     	;# 
   529  058C                     	;# 
   530  058C                     	;# 
   531  058D                     	;# 
   532  058E                     	;# 
   533  058F                     	;# 
   534  058F                     	;# 
   535  0590                     	;# 
   536  0591                     	;# 
   537  0592                     	;# 
   538  0593                     	;# 
   539  059C                     	;# 
   540  059C                     	;# 
   541  059D                     	;# 
   542  059D                     	;# 
   543  059E                     	;# 
   544  059F                     	;# 
   545  060C                     	;# 
   546  060D                     	;# 
   547  060E                     	;# 
   548  060F                     	;# 
   549  0610                     	;# 
   550  0611                     	;# 
   551  0612                     	;# 
   552  0613                     	;# 
   553  0614                     	;# 
   554  070C                     	;# 
   555  070D                     	;# 
   556  070E                     	;# 
   557  070F                     	;# 
   558  0710                     	;# 
   559  0711                     	;# 
   560  0712                     	;# 
   561  0713                     	;# 
   562  0716                     	;# 
   563  0717                     	;# 
   564  0718                     	;# 
   565  0719                     	;# 
   566  071A                     	;# 
   567  071B                     	;# 
   568  071C                     	;# 
   569  071D                     	;# 
   570  0796                     	;# 
   571  0797                     	;# 
   572  0798                     	;# 
   573  0799                     	;# 
   574  079A                     	;# 
   575  079B                     	;# 
   576  080C                     	;# 
   577  080D                     	;# 
   578  080E                     	;# 
   579  080F                     	;# 
   580  0810                     	;# 
   581  0811                     	;# 
   582  0812                     	;# 
   583  0813                     	;# 
   584  0814                     	;# 
   585  081A                     	;# 
   586  081A                     	;# 
   587  081B                     	;# 
   588  081C                     	;# 
   589  081C                     	;# 
   590  081D                     	;# 
   591  081E                     	;# 
   592  081F                     	;# 
   593  088C                     	;# 
   594  088D                     	;# 
   595  088E                     	;# 
   596  088F                     	;# 
   597  0890                     	;# 
   598  0891                     	;# 
   599  0892                     	;# 
   600  0893                     	;# 
   601  0895                     	;# 
   602  0896                     	;# 
   603  090C                     	;# 
   604  090E                     	;# 
   605  090F                     	;# 
   606  091F                     	;# 
   607  098F                     	;# 
   608  098F                     	;# 
   609  0990                     	;# 
   610  0991                     	;# 
   611  0992                     	;# 
   612  0993                     	;# 
   613  0994                     	;# 
   614  0995                     	;# 
   615  0996                     	;# 
   616  0997                     	;# 
   617  0A19                     	;# 
   618  0A19                     	;# 
   619  0A1A                     	;# 
   620  0A1A                     	;# 
   621  0A1B                     	;# 
   622  0A1B                     	;# 
   623  0A1B                     	;# 
   624  0A1C                     	;# 
   625  0A1C                     	;# 
   626  0A1D                     	;# 
   627  0A1D                     	;# 
   628  0A1E                     	;# 
   629  0A1E                     	;# 
   630  0A1F                     	;# 
   631  0A1F                     	;# 
   632  0A1F                     	;# 
   633  1E0F                     	;# 
   634  1E10                     	;# 
   635  1E11                     	;# 
   636  1E12                     	;# 
   637  1E13                     	;# 
   638  1E14                     	;# 
   639  1E15                     	;# 
   640  1E16                     	;# 
   641  1E17                     	;# 
   642  1E18                     	;# 
   643  1E19                     	;# 
   644  1E1A                     	;# 
   645  1E1B                     	;# 
   646  1E1C                     	;# 
   647  1E1D                     	;# 
   648  1E1E                     	;# 
   649  1E1F                     	;# 
   650  1E20                     	;# 
   651  1E21                     	;# 
   652  1E22                     	;# 
   653  1E23                     	;# 
   654  1E24                     	;# 
   655  1E25                     	;# 
   656  1E26                     	;# 
   657  1E27                     	;# 
   658  1E28                     	;# 
   659  1E29                     	;# 
   660  1E2A                     	;# 
   661  1E2B                     	;# 
   662  1E2C                     	;# 
   663  1E2D                     	;# 
   664  1E2E                     	;# 
   665  1E2F                     	;# 
   666  1E30                     	;# 
   667  1E31                     	;# 
   668  1E32                     	;# 
   669  1E33                     	;# 
   670  1E34                     	;# 
   671  1E35                     	;# 
   672  1E36                     	;# 
   673  1E37                     	;# 
   674  1E8F                     	;# 
   675  1E90                     	;# 
   676  1E91                     	;# 
   677  1E92                     	;# 
   678  1E93                     	;# 
   679  1E9C                     	;# 
   680  1EA1                     	;# 
   681  1EA2                     	;# 
   682  1EB1                     	;# 
   683  1EBB                     	;# 
   684  1EBC                     	;# 
   685  1EBD                     	;# 
   686  1EBE                     	;# 
   687  1EC3                     	;# 
   688  1EC5                     	;# 
   689  1EC6                     	;# 
   690  1EC7                     	;# 
   691  1EC8                     	;# 
   692  1EC9                     	;# 
   693  1ECA                     	;# 
   694  1ECB                     	;# 
   695  1ECC                     	;# 
   696  1ECD                     	;# 
   697  1ECE                     	;# 
   698  1F10                     	;# 
   699  1F11                     	;# 
   700  1F12                     	;# 
   701  1F13                     	;# 
   702  1F14                     	;# 
   703  1F15                     	;# 
   704  1F16                     	;# 
   705  1F17                     	;# 
   706  1F18                     	;# 
   707  1F19                     	;# 
   708  1F1A                     	;# 
   709  1F1B                     	;# 
   710  1F1C                     	;# 
   711  1F1D                     	;# 
   712  1F1E                     	;# 
   713  1F1F                     	;# 
   714  1F20                     	;# 
   715  1F21                     	;# 
   716  1F22                     	;# 
   717  1F23                     	;# 
   718  1F24                     	;# 
   719  1F25                     	;# 
   720  1F26                     	;# 
   721  1F27                     	;# 
   722  1F38                     	;# 
   723  1F39                     	;# 
   724  1F3A                     	;# 
   725  1F3B                     	;# 
   726  1F3C                     	;# 
   727  1F3D                     	;# 
   728  1F3E                     	;# 
   729  1F3F                     	;# 
   730  1F43                     	;# 
   731  1F44                     	;# 
   732  1F45                     	;# 
   733  1F46                     	;# 
   734  1F47                     	;# 
   735  1F48                     	;# 
   736  1F49                     	;# 
   737  1F4A                     	;# 
   738  1F4E                     	;# 
   739  1F4F                     	;# 
   740  1F50                     	;# 
   741  1F51                     	;# 
   742  1F52                     	;# 
   743  1F53                     	;# 
   744  1F54                     	;# 
   745  1F55                     	;# 
   746  1F65                     	;# 
   747  1F68                     	;# 
   748  1F69                     	;# 
   749  1F6A                     	;# 
   750  1F6B                     	;# 
   751  1FE4                     	;# 
   752  1FE5                     	;# 
   753  1FE6                     	;# 
   754  1FE7                     	;# 
   755  1FE8                     	;# 
   756  1FE8                     	;# 
   757  1FE9                     	;# 
   758  1FEA                     	;# 
   759  1FEA                     	;# 
   760  1FEB                     	;# 
   761  1FED                     	;# 
   762  1FEE                     	;# 
   763  1FEF                     	;# 
   764  0000                     	;# 
   765  0001                     	;# 
   766  0002                     	;# 
   767  0003                     	;# 
   768  0004                     	;# 
   769  0005                     	;# 
   770  0006                     	;# 
   771  0007                     	;# 
   772  0008                     	;# 
   773  0009                     	;# 
   774  000A                     	;# 
   775  000B                     	;# 
   776  000C                     	;# 
   777  000D                     	;# 
   778  000E                     	;# 
   779  0010                     	;# 
   780  0012                     	;# 
   781  0013                     	;# 
   782  0014                     	;# 
   783  0016                     	;# 
   784  0018                     	;# 
   785  0019                     	;# 
   786  001A                     	;# 
   787  009B                     	;# 
   788  009B                     	;# 
   789  009C                     	;# 
   790  009D                     	;# 
   791  009E                     	;# 
   792  009F                     	;# 
   793  0119                     	;# 
   794  0119                     	;# 
   795  0119                     	;# 
   796  011A                     	;# 
   797  011A                     	;# 
   798  011A                     	;# 
   799  011B                     	;# 
   800  011B                     	;# 
   801  011B                     	;# 
   802  011B                     	;# 
   803  011B                     	;# 
   804  011C                     	;# 
   805  011C                     	;# 
   806  011C                     	;# 
   807  011D                     	;# 
   808  011D                     	;# 
   809  011D                     	;# 
   810  011E                     	;# 
   811  011E                     	;# 
   812  011E                     	;# 
   813  011F                     	;# 
   814  011F                     	;# 
   815  011F                     	;# 
   816  011F                     	;# 
   817  011F                     	;# 
   818  018C                     	;# 
   819  018D                     	;# 
   820  018E                     	;# 
   821  018F                     	;# 
   822  0190                     	;# 
   823  0191                     	;# 
   824  0192                     	;# 
   825  0196                     	;# 
   826  0197                     	;# 
   827  0198                     	;# 
   828  0199                     	;# 
   829  019A                     	;# 
   830  019B                     	;# 
   831  019C                     	;# 
   832  020C                     	;# 
   833  020C                     	;# 
   834  020D                     	;# 
   835  020E                     	;# 
   836  020F                     	;# 
   837  020F                     	;# 
   838  0210                     	;# 
   839  0210                     	;# 
   840  0211                     	;# 
   841  0211                     	;# 
   842  028C                     	;# 
   843  028C                     	;# 
   844  028D                     	;# 
   845  028D                     	;# 
   846  028E                     	;# 
   847  028F                     	;# 
   848  0290                     	;# 
   849  0291                     	;# 
   850  030C                     	;# 
   851  030C                     	;# 
   852  030D                     	;# 
   853  030E                     	;# 
   854  030F                     	;# 
   855  0310                     	;# 
   856  0310                     	;# 
   857  0311                     	;# 
   858  0312                     	;# 
   859  0313                     	;# 
   860  0314                     	;# 
   861  0314                     	;# 
   862  0315                     	;# 
   863  0316                     	;# 
   864  0318                     	;# 
   865  0318                     	;# 
   866  0319                     	;# 
   867  031A                     	;# 
   868  031C                     	;# 
   869  031C                     	;# 
   870  031D                     	;# 
   871  031E                     	;# 
   872  038C                     	;# 
   873  038C                     	;# 
   874  038D                     	;# 
   875  038E                     	;# 
   876  058C                     	;# 
   877  058C                     	;# 
   878  058D                     	;# 
   879  058E                     	;# 
   880  058F                     	;# 
   881  058F                     	;# 
   882  0590                     	;# 
   883  0591                     	;# 
   884  0592                     	;# 
   885  0593                     	;# 
   886  059C                     	;# 
   887  059C                     	;# 
   888  059D                     	;# 
   889  059D                     	;# 
   890  059E                     	;# 
   891  059F                     	;# 
   892  060C                     	;# 
   893  060D                     	;# 
   894  060E                     	;# 
   895  060F                     	;# 
   896  0610                     	;# 
   897  0611                     	;# 
   898  0612                     	;# 
   899  0613                     	;# 
   900  0614                     	;# 
   901  070C                     	;# 
   902  070D                     	;# 
   903  070E                     	;# 
   904  070F                     	;# 
   905  0710                     	;# 
   906  0711                     	;# 
   907  0712                     	;# 
   908  0713                     	;# 
   909  0716                     	;# 
   910  0717                     	;# 
   911  0718                     	;# 
   912  0719                     	;# 
   913  071A                     	;# 
   914  071B                     	;# 
   915  071C                     	;# 
   916  071D                     	;# 
   917  0796                     	;# 
   918  0797                     	;# 
   919  0798                     	;# 
   920  0799                     	;# 
   921  079A                     	;# 
   922  079B                     	;# 
   923  080C                     	;# 
   924  080D                     	;# 
   925  080E                     	;# 
   926  080F                     	;# 
   927  0810                     	;# 
   928  0811                     	;# 
   929  0812                     	;# 
   930  0813                     	;# 
   931  0814                     	;# 
   932  081A                     	;# 
   933  081A                     	;# 
   934  081B                     	;# 
   935  081C                     	;# 
   936  081C                     	;# 
   937  081D                     	;# 
   938  081E                     	;# 
   939  081F                     	;# 
   940  088C                     	;# 
   941  088D                     	;# 
   942  088E                     	;# 
   943  088F                     	;# 
   944  0890                     	;# 
   945  0891                     	;# 
   946  0892                     	;# 
   947  0893                     	;# 
   948  0895                     	;# 
   949  0896                     	;# 
   950  090C                     	;# 
   951  090E                     	;# 
   952  090F                     	;# 
   953  091F                     	;# 
   954  098F                     	;# 
   955  098F                     	;# 
   956  0990                     	;# 
   957  0991                     	;# 
   958  0992                     	;# 
   959  0993                     	;# 
   960  0994                     	;# 
   961  0995                     	;# 
   962  0996                     	;# 
   963  0997                     	;# 
   964  0A19                     	;# 
   965  0A19                     	;# 
   966  0A1A                     	;# 
   967  0A1A                     	;# 
   968  0A1B                     	;# 
   969  0A1B                     	;# 
   970  0A1B                     	;# 
   971  0A1C                     	;# 
   972  0A1C                     	;# 
   973  0A1D                     	;# 
   974  0A1D                     	;# 
   975  0A1E                     	;# 
   976  0A1E                     	;# 
   977  0A1F                     	;# 
   978  0A1F                     	;# 
   979  0A1F                     	;# 
   980  1E0F                     	;# 
   981  1E10                     	;# 
   982  1E11                     	;# 
   983  1E12                     	;# 
   984  1E13                     	;# 
   985  1E14                     	;# 
   986  1E15                     	;# 
   987  1E16                     	;# 
   988  1E17                     	;# 
   989  1E18                     	;# 
   990  1E19                     	;# 
   991  1E1A                     	;# 
   992  1E1B                     	;# 
   993  1E1C                     	;# 
   994  1E1D                     	;# 
   995  1E1E                     	;# 
   996  1E1F                     	;# 
   997  1E20                     	;# 
   998  1E21                     	;# 
   999  1E22                     	;# 
  1000  1E23                     	;# 
  1001  1E24                     	;# 
  1002  1E25                     	;# 
  1003  1E26                     	;# 
  1004  1E27                     	;# 
  1005  1E28                     	;# 
  1006  1E29                     	;# 
  1007  1E2A                     	;# 
  1008  1E2B                     	;# 
  1009  1E2C                     	;# 
  1010  1E2D                     	;# 
  1011  1E2E                     	;# 
  1012  1E2F                     	;# 
  1013  1E30                     	;# 
  1014  1E31                     	;# 
  1015  1E32                     	;# 
  1016  1E33                     	;# 
  1017  1E34                     	;# 
  1018  1E35                     	;# 
  1019  1E36                     	;# 
  1020  1E37                     	;# 
  1021  1E8F                     	;# 
  1022  1E90                     	;# 
  1023  1E91                     	;# 
  1024  1E92                     	;# 
  1025  1E93                     	;# 
  1026  1E9C                     	;# 
  1027  1EA1                     	;# 
  1028  1EA2                     	;# 
  1029  1EB1                     	;# 
  1030  1EBB                     	;# 
  1031  1EBC                     	;# 
  1032  1EBD                     	;# 
  1033  1EBE                     	;# 
  1034  1EC3                     	;# 
  1035  1EC5                     	;# 
  1036  1EC6                     	;# 
  1037  1EC7                     	;# 
  1038  1EC8                     	;# 
  1039  1EC9                     	;# 
  1040  1ECA                     	;# 
  1041  1ECB                     	;# 
  1042  1ECC                     	;# 
  1043  1ECD                     	;# 
  1044  1ECE                     	;# 
  1045  1F10                     	;# 
  1046  1F11                     	;# 
  1047  1F12                     	;# 
  1048  1F13                     	;# 
  1049  1F14                     	;# 
  1050  1F15                     	;# 
  1051  1F16                     	;# 
  1052  1F17                     	;# 
  1053  1F18                     	;# 
  1054  1F19                     	;# 
  1055  1F1A                     	;# 
  1056  1F1B                     	;# 
  1057  1F1C                     	;# 
  1058  1F1D                     	;# 
  1059  1F1E                     	;# 
  1060  1F1F                     	;# 
  1061  1F20                     	;# 
  1062  1F21                     	;# 
  1063  1F22                     	;# 
  1064  1F23                     	;# 
  1065  1F24                     	;# 
  1066  1F25                     	;# 
  1067  1F26                     	;# 
  1068  1F27                     	;# 
  1069  1F38                     	;# 
  1070  1F39                     	;# 
  1071  1F3A                     	;# 
  1072  1F3B                     	;# 
  1073  1F3C                     	;# 
  1074  1F3D                     	;# 
  1075  1F3E                     	;# 
  1076  1F3F                     	;# 
  1077  1F43                     	;# 
  1078  1F44                     	;# 
  1079  1F45                     	;# 
  1080  1F46                     	;# 
  1081  1F47                     	;# 
  1082  1F48                     	;# 
  1083  1F49                     	;# 
  1084  1F4A                     	;# 
  1085  1F4E                     	;# 
  1086  1F4F                     	;# 
  1087  1F50                     	;# 
  1088  1F51                     	;# 
  1089  1F52                     	;# 
  1090  1F53                     	;# 
  1091  1F54                     	;# 
  1092  1F55                     	;# 
  1093  1F65                     	;# 
  1094  1F68                     	;# 
  1095  1F69                     	;# 
  1096  1F6A                     	;# 
  1097  1F6B                     	;# 
  1098  1FE4                     	;# 
  1099  1FE5                     	;# 
  1100  1FE6                     	;# 
  1101  1FE7                     	;# 
  1102  1FE8                     	;# 
  1103  1FE8                     	;# 
  1104  1FE9                     	;# 
  1105  1FEA                     	;# 
  1106  1FEA                     	;# 
  1107  1FEB                     	;# 
  1108  1FED                     	;# 
  1109  1FEE                     	;# 
  1110  1FEF                     	;# 
  1111  0000                     	;# 
  1112  0001                     	;# 
  1113  0002                     	;# 
  1114  0003                     	;# 
  1115  0004                     	;# 
  1116  0005                     	;# 
  1117  0006                     	;# 
  1118  0007                     	;# 
  1119  0008                     	;# 
  1120  0009                     	;# 
  1121  000A                     	;# 
  1122  000B                     	;# 
  1123  000C                     	;# 
  1124  000D                     	;# 
  1125  000E                     	;# 
  1126  0010                     	;# 
  1127  0012                     	;# 
  1128  0013                     	;# 
  1129  0014                     	;# 
  1130  0016                     	;# 
  1131  0018                     	;# 
  1132  0019                     	;# 
  1133  001A                     	;# 
  1134  009B                     	;# 
  1135  009B                     	;# 
  1136  009C                     	;# 
  1137  009D                     	;# 
  1138  009E                     	;# 
  1139  009F                     	;# 
  1140  0119                     	;# 
  1141  0119                     	;# 
  1142  0119                     	;# 
  1143  011A                     	;# 
  1144  011A                     	;# 
  1145  011A                     	;# 
  1146  011B                     	;# 
  1147  011B                     	;# 
  1148  011B                     	;# 
  1149  011B                     	;# 
  1150  011B                     	;# 
  1151  011C                     	;# 
  1152  011C                     	;# 
  1153  011C                     	;# 
  1154  011D                     	;# 
  1155  011D                     	;# 
  1156  011D                     	;# 
  1157  011E                     	;# 
  1158  011E                     	;# 
  1159  011E                     	;# 
  1160  011F                     	;# 
  1161  011F                     	;# 
  1162  011F                     	;# 
  1163  011F                     	;# 
  1164  011F                     	;# 
  1165  018C                     	;# 
  1166  018D                     	;# 
  1167  018E                     	;# 
  1168  018F                     	;# 
  1169  0190                     	;# 
  1170  0191                     	;# 
  1171  0192                     	;# 
  1172  0196                     	;# 
  1173  0197                     	;# 
  1174  0198                     	;# 
  1175  0199                     	;# 
  1176  019A                     	;# 
  1177  019B                     	;# 
  1178  019C                     	;# 
  1179  020C                     	;# 
  1180  020C                     	;# 
  1181  020D                     	;# 
  1182  020E                     	;# 
  1183  020F                     	;# 
  1184  020F                     	;# 
  1185  0210                     	;# 
  1186  0210                     	;# 
  1187  0211                     	;# 
  1188  0211                     	;# 
  1189  028C                     	;# 
  1190  028C                     	;# 
  1191  028D                     	;# 
  1192  028D                     	;# 
  1193  028E                     	;# 
  1194  028F                     	;# 
  1195  0290                     	;# 
  1196  0291                     	;# 
  1197  030C                     	;# 
  1198  030C                     	;# 
  1199  030D                     	;# 
  1200  030E                     	;# 
  1201  030F                     	;# 
  1202  0310                     	;# 
  1203  0310                     	;# 
  1204  0311                     	;# 
  1205  0312                     	;# 
  1206  0313                     	;# 
  1207  0314                     	;# 
  1208  0314                     	;# 
  1209  0315                     	;# 
  1210  0316                     	;# 
  1211  0318                     	;# 
  1212  0318                     	;# 
  1213  0319                     	;# 
  1214  031A                     	;# 
  1215  031C                     	;# 
  1216  031C                     	;# 
  1217  031D                     	;# 
  1218  031E                     	;# 
  1219  038C                     	;# 
  1220  038C                     	;# 
  1221  038D                     	;# 
  1222  038E                     	;# 
  1223  058C                     	;# 
  1224  058C                     	;# 
  1225  058D                     	;# 
  1226  058E                     	;# 
  1227  058F                     	;# 
  1228  058F                     	;# 
  1229  0590                     	;# 
  1230  0591                     	;# 
  1231  0592                     	;# 
  1232  0593                     	;# 
  1233  059C                     	;# 
  1234  059C                     	;# 
  1235  059D                     	;# 
  1236  059D                     	;# 
  1237  059E                     	;# 
  1238  059F                     	;# 
  1239  060C                     	;# 
  1240  060D                     	;# 
  1241  060E                     	;# 
  1242  060F                     	;# 
  1243  0610                     	;# 
  1244  0611                     	;# 
  1245  0612                     	;# 
  1246  0613                     	;# 
  1247  0614                     	;# 
  1248  070C                     	;# 
  1249  070D                     	;# 
  1250  070E                     	;# 
  1251  070F                     	;# 
  1252  0710                     	;# 
  1253  0711                     	;# 
  1254  0712                     	;# 
  1255  0713                     	;# 
  1256  0716                     	;# 
  1257  0717                     	;# 
  1258  0718                     	;# 
  1259  0719                     	;# 
  1260  071A                     	;# 
  1261  071B                     	;# 
  1262  071C                     	;# 
  1263  071D                     	;# 
  1264  0796                     	;# 
  1265  0797                     	;# 
  1266  0798                     	;# 
  1267  0799                     	;# 
  1268  079A                     	;# 
  1269  079B                     	;# 
  1270  080C                     	;# 
  1271  080D                     	;# 
  1272  080E                     	;# 
  1273  080F                     	;# 
  1274  0810                     	;# 
  1275  0811                     	;# 
  1276  0812                     	;# 
  1277  0813                     	;# 
  1278  0814                     	;# 
  1279  081A                     	;# 
  1280  081A                     	;# 
  1281  081B                     	;# 
  1282  081C                     	;# 
  1283  081C                     	;# 
  1284  081D                     	;# 
  1285  081E                     	;# 
  1286  081F                     	;# 
  1287  088C                     	;# 
  1288  088D                     	;# 
  1289  088E                     	;# 
  1290  088F                     	;# 
  1291  0890                     	;# 
  1292  0891                     	;# 
  1293  0892                     	;# 
  1294  0893                     	;# 
  1295  0895                     	;# 
  1296  0896                     	;# 
  1297  090C                     	;# 
  1298  090E                     	;# 
  1299  090F                     	;# 
  1300  091F                     	;# 
  1301  098F                     	;# 
  1302  098F                     	;# 
  1303  0990                     	;# 
  1304  0991                     	;# 
  1305  0992                     	;# 
  1306  0993                     	;# 
  1307  0994                     	;# 
  1308  0995                     	;# 
  1309  0996                     	;# 
  1310  0997                     	;# 
  1311  0A19                     	;# 
  1312  0A19                     	;# 
  1313  0A1A                     	;# 
  1314  0A1A                     	;# 
  1315  0A1B                     	;# 
  1316  0A1B                     	;# 
  1317  0A1B                     	;# 
  1318  0A1C                     	;# 
  1319  0A1C                     	;# 
  1320  0A1D                     	;# 
  1321  0A1D                     	;# 
  1322  0A1E                     	;# 
  1323  0A1E                     	;# 
  1324  0A1F                     	;# 
  1325  0A1F                     	;# 
  1326  0A1F                     	;# 
  1327  1E0F                     	;# 
  1328  1E10                     	;# 
  1329  1E11                     	;# 
  1330  1E12                     	;# 
  1331  1E13                     	;# 
  1332  1E14                     	;# 
  1333  1E15                     	;# 
  1334  1E16                     	;# 
  1335  1E17                     	;# 
  1336  1E18                     	;# 
  1337  1E19                     	;# 
  1338  1E1A                     	;# 
  1339  1E1B                     	;# 
  1340  1E1C                     	;# 
  1341  1E1D                     	;# 
  1342  1E1E                     	;# 
  1343  1E1F                     	;# 
  1344  1E20                     	;# 
  1345  1E21                     	;# 
  1346  1E22                     	;# 
  1347  1E23                     	;# 
  1348  1E24                     	;# 
  1349  1E25                     	;# 
  1350  1E26                     	;# 
  1351  1E27                     	;# 
  1352  1E28                     	;# 
  1353  1E29                     	;# 
  1354  1E2A                     	;# 
  1355  1E2B                     	;# 
  1356  1E2C                     	;# 
  1357  1E2D                     	;# 
  1358  1E2E                     	;# 
  1359  1E2F                     	;# 
  1360  1E30                     	;# 
  1361  1E31                     	;# 
  1362  1E32                     	;# 
  1363  1E33                     	;# 
  1364  1E34                     	;# 
  1365  1E35                     	;# 
  1366  1E36                     	;# 
  1367  1E37                     	;# 
  1368  1E8F                     	;# 
  1369  1E90                     	;# 
  1370  1E91                     	;# 
  1371  1E92                     	;# 
  1372  1E93                     	;# 
  1373  1E9C                     	;# 
  1374  1EA1                     	;# 
  1375  1EA2                     	;# 
  1376  1EB1                     	;# 
  1377  1EBB                     	;# 
  1378  1EBC                     	;# 
  1379  1EBD                     	;# 
  1380  1EBE                     	;# 
  1381  1EC3                     	;# 
  1382  1EC5                     	;# 
  1383  1EC6                     	;# 
  1384  1EC7                     	;# 
  1385  1EC8                     	;# 
  1386  1EC9                     	;# 
  1387  1ECA                     	;# 
  1388  1ECB                     	;# 
  1389  1ECC                     	;# 
  1390  1ECD                     	;# 
  1391  1ECE                     	;# 
  1392  1F10                     	;# 
  1393  1F11                     	;# 
  1394  1F12                     	;# 
  1395  1F13                     	;# 
  1396  1F14                     	;# 
  1397  1F15                     	;# 
  1398  1F16                     	;# 
  1399  1F17                     	;# 
  1400  1F18                     	;# 
  1401  1F19                     	;# 
  1402  1F1A                     	;# 
  1403  1F1B                     	;# 
  1404  1F1C                     	;# 
  1405  1F1D                     	;# 
  1406  1F1E                     	;# 
  1407  1F1F                     	;# 
  1408  1F20                     	;# 
  1409  1F21                     	;# 
  1410  1F22                     	;# 
  1411  1F23                     	;# 
  1412  1F24                     	;# 
  1413  1F25                     	;# 
  1414  1F26                     	;# 
  1415  1F27                     	;# 
  1416  1F38                     	;# 
  1417  1F39                     	;# 
  1418  1F3A                     	;# 
  1419  1F3B                     	;# 
  1420  1F3C                     	;# 
  1421  1F3D                     	;# 
  1422  1F3E                     	;# 
  1423  1F3F                     	;# 
  1424  1F43                     	;# 
  1425  1F44                     	;# 
  1426  1F45                     	;# 
  1427  1F46                     	;# 
  1428  1F47                     	;# 
  1429  1F48                     	;# 
  1430  1F49                     	;# 
  1431  1F4A                     	;# 
  1432  1F4E                     	;# 
  1433  1F4F                     	;# 
  1434  1F50                     	;# 
  1435  1F51                     	;# 
  1436  1F52                     	;# 
  1437  1F53                     	;# 
  1438  1F54                     	;# 
  1439  1F55                     	;# 
  1440  1F65                     	;# 
  1441  1F68                     	;# 
  1442  1F69                     	;# 
  1443  1F6A                     	;# 
  1444  1F6B                     	;# 
  1445  1FE4                     	;# 
  1446  1FE5                     	;# 
  1447  1FE6                     	;# 
  1448  1FE7                     	;# 
  1449  1FE8                     	;# 
  1450  1FE8                     	;# 
  1451  1FE9                     	;# 
  1452  1FEA                     	;# 
  1453  1FEA                     	;# 
  1454  1FEB                     	;# 
  1455  1FED                     	;# 
  1456  1FEE                     	;# 
  1457  1FEF                     	;# 
  1458  0000                     	;# 
  1459  0001                     	;# 
  1460  0002                     	;# 
  1461  0003                     	;# 
  1462  0004                     	;# 
  1463  0005                     	;# 
  1464  0006                     	;# 
  1465  0007                     	;# 
  1466  0008                     	;# 
  1467  0009                     	;# 
  1468  000A                     	;# 
  1469  000B                     	;# 
  1470  000C                     	;# 
  1471  000D                     	;# 
  1472  000E                     	;# 
  1473  0010                     	;# 
  1474  0012                     	;# 
  1475  0013                     	;# 
  1476  0014                     	;# 
  1477  0016                     	;# 
  1478  0018                     	;# 
  1479  0019                     	;# 
  1480  001A                     	;# 
  1481  009B                     	;# 
  1482  009B                     	;# 
  1483  009C                     	;# 
  1484  009D                     	;# 
  1485  009E                     	;# 
  1486  009F                     	;# 
  1487  0119                     	;# 
  1488  0119                     	;# 
  1489  0119                     	;# 
  1490  011A                     	;# 
  1491  011A                     	;# 
  1492  011A                     	;# 
  1493  011B                     	;# 
  1494  011B                     	;# 
  1495  011B                     	;# 
  1496  011B                     	;# 
  1497  011B                     	;# 
  1498  011C                     	;# 
  1499  011C                     	;# 
  1500  011C                     	;# 
  1501  011D                     	;# 
  1502  011D                     	;# 
  1503  011D                     	;# 
  1504  011E                     	;# 
  1505  011E                     	;# 
  1506  011E                     	;# 
  1507  011F                     	;# 
  1508  011F                     	;# 
  1509  011F                     	;# 
  1510  011F                     	;# 
  1511  011F                     	;# 
  1512  018C                     	;# 
  1513  018D                     	;# 
  1514  018E                     	;# 
  1515  018F                     	;# 
  1516  0190                     	;# 
  1517  0191                     	;# 
  1518  0192                     	;# 
  1519  0196                     	;# 
  1520  0197                     	;# 
  1521  0198                     	;# 
  1522  0199                     	;# 
  1523  019A                     	;# 
  1524  019B                     	;# 
  1525  019C                     	;# 
  1526  020C                     	;# 
  1527  020C                     	;# 
  1528  020D                     	;# 
  1529  020E                     	;# 
  1530  020F                     	;# 
  1531  020F                     	;# 
  1532  0210                     	;# 
  1533  0210                     	;# 
  1534  0211                     	;# 
  1535  0211                     	;# 
  1536  028C                     	;# 
  1537  028C                     	;# 
  1538  028D                     	;# 
  1539  028D                     	;# 
  1540  028E                     	;# 
  1541  028F                     	;# 
  1542  0290                     	;# 
  1543  0291                     	;# 
  1544  030C                     	;# 
  1545  030C                     	;# 
  1546  030D                     	;# 
  1547  030E                     	;# 
  1548  030F                     	;# 
  1549  0310                     	;# 
  1550  0310                     	;# 
  1551  0311                     	;# 
  1552  0312                     	;# 
  1553  0313                     	;# 
  1554  0314                     	;# 
  1555  0314                     	;# 
  1556  0315                     	;# 
  1557  0316                     	;# 
  1558  0318                     	;# 
  1559  0318                     	;# 
  1560  0319                     	;# 
  1561  031A                     	;# 
  1562  031C                     	;# 
  1563  031C                     	;# 
  1564  031D                     	;# 
  1565  031E                     	;# 
  1566  038C                     	;# 
  1567  038C                     	;# 
  1568  038D                     	;# 
  1569  038E                     	;# 
  1570  058C                     	;# 
  1571  058C                     	;# 
  1572  058D                     	;# 
  1573  058E                     	;# 
  1574  058F                     	;# 
  1575  058F                     	;# 
  1576  0590                     	;# 
  1577  0591                     	;# 
  1578  0592                     	;# 
  1579  0593                     	;# 
  1580  059C                     	;# 
  1581  059C                     	;# 
  1582  059D                     	;# 
  1583  059D                     	;# 
  1584  059E                     	;# 
  1585  059F                     	;# 
  1586  060C                     	;# 
  1587  060D                     	;# 
  1588  060E                     	;# 
  1589  060F                     	;# 
  1590  0610                     	;# 
  1591  0611                     	;# 
  1592  0612                     	;# 
  1593  0613                     	;# 
  1594  0614                     	;# 
  1595  070C                     	;# 
  1596  070D                     	;# 
  1597  070E                     	;# 
  1598  070F                     	;# 
  1599  0710                     	;# 
  1600  0711                     	;# 
  1601  0712                     	;# 
  1602  0713                     	;# 
  1603  0716                     	;# 
  1604  0717                     	;# 
  1605  0718                     	;# 
  1606  0719                     	;# 
  1607  071A                     	;# 
  1608  071B                     	;# 
  1609  071C                     	;# 
  1610  071D                     	;# 
  1611  0796                     	;# 
  1612  0797                     	;# 
  1613  0798                     	;# 
  1614  0799                     	;# 
  1615  079A                     	;# 
  1616  079B                     	;# 
  1617  080C                     	;# 
  1618  080D                     	;# 
  1619  080E                     	;# 
  1620  080F                     	;# 
  1621  0810                     	;# 
  1622  0811                     	;# 
  1623  0812                     	;# 
  1624  0813                     	;# 
  1625  0814                     	;# 
  1626  081A                     	;# 
  1627  081A                     	;# 
  1628  081B                     	;# 
  1629  081C                     	;# 
  1630  081C                     	;# 
  1631  081D                     	;# 
  1632  081E                     	;# 
  1633  081F                     	;# 
  1634  088C                     	;# 
  1635  088D                     	;# 
  1636  088E                     	;# 
  1637  088F                     	;# 
  1638  0890                     	;# 
  1639  0891                     	;# 
  1640  0892                     	;# 
  1641  0893                     	;# 
  1642  0895                     	;# 
  1643  0896                     	;# 
  1644  090C                     	;# 
  1645  090E                     	;# 
  1646  090F                     	;# 
  1647  091F                     	;# 
  1648  098F                     	;# 
  1649  098F                     	;# 
  1650  0990                     	;# 
  1651  0991                     	;# 
  1652  0992                     	;# 
  1653  0993                     	;# 
  1654  0994                     	;# 
  1655  0995                     	;# 
  1656  0996                     	;# 
  1657  0997                     	;# 
  1658  0A19                     	;# 
  1659  0A19                     	;# 
  1660  0A1A                     	;# 
  1661  0A1A                     	;# 
  1662  0A1B                     	;# 
  1663  0A1B                     	;# 
  1664  0A1B                     	;# 
  1665  0A1C                     	;# 
  1666  0A1C                     	;# 
  1667  0A1D                     	;# 
  1668  0A1D                     	;# 
  1669  0A1E                     	;# 
  1670  0A1E                     	;# 
  1671  0A1F                     	;# 
  1672  0A1F                     	;# 
  1673  0A1F                     	;# 
  1674  1E0F                     	;# 
  1675  1E10                     	;# 
  1676  1E11                     	;# 
  1677  1E12                     	;# 
  1678  1E13                     	;# 
  1679  1E14                     	;# 
  1680  1E15                     	;# 
  1681  1E16                     	;# 
  1682  1E17                     	;# 
  1683  1E18                     	;# 
  1684  1E19                     	;# 
  1685  1E1A                     	;# 
  1686  1E1B                     	;# 
  1687  1E1C                     	;# 
  1688  1E1D                     	;# 
  1689  1E1E                     	;# 
  1690  1E1F                     	;# 
  1691  1E20                     	;# 
  1692  1E21                     	;# 
  1693  1E22                     	;# 
  1694  1E23                     	;# 
  1695  1E24                     	;# 
  1696  1E25                     	;# 
  1697  1E26                     	;# 
  1698  1E27                     	;# 
  1699  1E28                     	;# 
  1700  1E29                     	;# 
  1701  1E2A                     	;# 
  1702  1E2B                     	;# 
  1703  1E2C                     	;# 
  1704  1E2D                     	;# 
  1705  1E2E                     	;# 
  1706  1E2F                     	;# 
  1707  1E30                     	;# 
  1708  1E31                     	;# 
  1709  1E32                     	;# 
  1710  1E33                     	;# 
  1711  1E34                     	;# 
  1712  1E35                     	;# 
  1713  1E36                     	;# 
  1714  1E37                     	;# 
  1715  1E8F                     	;# 
  1716  1E90                     	;# 
  1717  1E91                     	;# 
  1718  1E92                     	;# 
  1719  1E93                     	;# 
  1720  1E9C                     	;# 
  1721  1EA1                     	;# 
  1722  1EA2                     	;# 
  1723  1EB1                     	;# 
  1724  1EBB                     	;# 
  1725  1EBC                     	;# 
  1726  1EBD                     	;# 
  1727  1EBE                     	;# 
  1728  1EC3                     	;# 
  1729  1EC5                     	;# 
  1730  1EC6                     	;# 
  1731  1EC7                     	;# 
  1732  1EC8                     	;# 
  1733  1EC9                     	;# 
  1734  1ECA                     	;# 
  1735  1ECB                     	;# 
  1736  1ECC                     	;# 
  1737  1ECD                     	;# 
  1738  1ECE                     	;# 
  1739  1F10                     	;# 
  1740  1F11                     	;# 
  1741  1F12                     	;# 
  1742  1F13                     	;# 
  1743  1F14                     	;# 
  1744  1F15                     	;# 
  1745  1F16                     	;# 
  1746  1F17                     	;# 
  1747  1F18                     	;# 
  1748  1F19                     	;# 
  1749  1F1A                     	;# 
  1750  1F1B                     	;# 
  1751  1F1C                     	;# 
  1752  1F1D                     	;# 
  1753  1F1E                     	;# 
  1754  1F1F                     	;# 
  1755  1F20                     	;# 
  1756  1F21                     	;# 
  1757  1F22                     	;# 
  1758  1F23                     	;# 
  1759  1F24                     	;# 
  1760  1F25                     	;# 
  1761  1F26                     	;# 
  1762  1F27                     	;# 
  1763  1F38                     	;# 
  1764  1F39                     	;# 
  1765  1F3A                     	;# 
  1766  1F3B                     	;# 
  1767  1F3C                     	;# 
  1768  1F3D                     	;# 
  1769  1F3E                     	;# 
  1770  1F3F                     	;# 
  1771  1F43                     	;# 
  1772  1F44                     	;# 
  1773  1F45                     	;# 
  1774  1F46                     	;# 
  1775  1F47                     	;# 
  1776  1F48                     	;# 
  1777  1F49                     	;# 
  1778  1F4A                     	;# 
  1779  1F4E                     	;# 
  1780  1F4F                     	;# 
  1781  1F50                     	;# 
  1782  1F51                     	;# 
  1783  1F52                     	;# 
  1784  1F53                     	;# 
  1785  1F54                     	;# 
  1786  1F55                     	;# 
  1787  1F65                     	;# 
  1788  1F68                     	;# 
  1789  1F69                     	;# 
  1790  1F6A                     	;# 
  1791  1F6B                     	;# 
  1792  1FE4                     	;# 
  1793  1FE5                     	;# 
  1794  1FE6                     	;# 
  1795  1FE7                     	;# 
  1796  1FE8                     	;# 
  1797  1FE8                     	;# 
  1798  1FE9                     	;# 
  1799  1FEA                     	;# 
  1800  1FEA                     	;# 
  1801  1FEB                     	;# 
  1802  1FED                     	;# 
  1803  1FEE                     	;# 
  1804  1FEF                     	;# 
  1805  0000                     	;# 
  1806  0001                     	;# 
  1807  0002                     	;# 
  1808  0003                     	;# 
  1809  0004                     	;# 
  1810  0005                     	;# 
  1811  0006                     	;# 
  1812  0007                     	;# 
  1813  0008                     	;# 
  1814  0009                     	;# 
  1815  000A                     	;# 
  1816  000B                     	;# 
  1817  000C                     	;# 
  1818  000D                     	;# 
  1819  000E                     	;# 
  1820  0010                     	;# 
  1821  0012                     	;# 
  1822  0013                     	;# 
  1823  0014                     	;# 
  1824  0016                     	;# 
  1825  0018                     	;# 
  1826  0019                     	;# 
  1827  001A                     	;# 
  1828  009B                     	;# 
  1829  009B                     	;# 
  1830  009C                     	;# 
  1831  009D                     	;# 
  1832  009E                     	;# 
  1833  009F                     	;# 
  1834  0119                     	;# 
  1835  0119                     	;# 
  1836  0119                     	;# 
  1837  011A                     	;# 
  1838  011A                     	;# 
  1839  011A                     	;# 
  1840  011B                     	;# 
  1841  011B                     	;# 
  1842  011B                     	;# 
  1843  011B                     	;# 
  1844  011B                     	;# 
  1845  011C                     	;# 
  1846  011C                     	;# 
  1847  011C                     	;# 
  1848  011D                     	;# 
  1849  011D                     	;# 
  1850  011D                     	;# 
  1851  011E                     	;# 
  1852  011E                     	;# 
  1853  011E                     	;# 
  1854  011F                     	;# 
  1855  011F                     	;# 
  1856  011F                     	;# 
  1857  011F                     	;# 
  1858  011F                     	;# 
  1859  018C                     	;# 
  1860  018D                     	;# 
  1861  018E                     	;# 
  1862  018F                     	;# 
  1863  0190                     	;# 
  1864  0191                     	;# 
  1865  0192                     	;# 
  1866  0196                     	;# 
  1867  0197                     	;# 
  1868  0198                     	;# 
  1869  0199                     	;# 
  1870  019A                     	;# 
  1871  019B                     	;# 
  1872  019C                     	;# 
  1873  020C                     	;# 
  1874  020C                     	;# 
  1875  020D                     	;# 
  1876  020E                     	;# 
  1877  020F                     	;# 
  1878  020F                     	;# 
  1879  0210                     	;# 
  1880  0210                     	;# 
  1881  0211                     	;# 
  1882  0211                     	;# 
  1883  028C                     	;# 
  1884  028C                     	;# 
  1885  028D                     	;# 
  1886  028D                     	;# 
  1887  028E                     	;# 
  1888  028F                     	;# 
  1889  0290                     	;# 
  1890  0291                     	;# 
  1891  030C                     	;# 
  1892  030C                     	;# 
  1893  030D                     	;# 
  1894  030E                     	;# 
  1895  030F                     	;# 
  1896  0310                     	;# 
  1897  0310                     	;# 
  1898  0311                     	;# 
  1899  0312                     	;# 
  1900  0313                     	;# 
  1901  0314                     	;# 
  1902  0314                     	;# 
  1903  0315                     	;# 
  1904  0316                     	;# 
  1905  0318                     	;# 
  1906  0318                     	;# 
  1907  0319                     	;# 
  1908  031A                     	;# 
  1909  031C                     	;# 
  1910  031C                     	;# 
  1911  031D                     	;# 
  1912  031E                     	;# 
  1913  038C                     	;# 
  1914  038C                     	;# 
  1915  038D                     	;# 
  1916  038E                     	;# 
  1917  058C                     	;# 
  1918  058C                     	;# 
  1919  058D                     	;# 
  1920  058E                     	;# 
  1921  058F                     	;# 
  1922  058F                     	;# 
  1923  0590                     	;# 
  1924  0591                     	;# 
  1925  0592                     	;# 
  1926  0593                     	;# 
  1927  059C                     	;# 
  1928  059C                     	;# 
  1929  059D                     	;# 
  1930  059D                     	;# 
  1931  059E                     	;# 
  1932  059F                     	;# 
  1933  060C                     	;# 
  1934  060D                     	;# 
  1935  060E                     	;# 
  1936  060F                     	;# 
  1937  0610                     	;# 
  1938  0611                     	;# 
  1939  0612                     	;# 
  1940  0613                     	;# 
  1941  0614                     	;# 
  1942  070C                     	;# 
  1943  070D                     	;# 
  1944  070E                     	;# 
  1945  070F                     	;# 
  1946  0710                     	;# 
  1947  0711                     	;# 
  1948  0712                     	;# 
  1949  0713                     	;# 
  1950  0716                     	;# 
  1951  0717                     	;# 
  1952  0718                     	;# 
  1953  0719                     	;# 
  1954  071A                     	;# 
  1955  071B                     	;# 
  1956  071C                     	;# 
  1957  071D                     	;# 
  1958  0796                     	;# 
  1959  0797                     	;# 
  1960  0798                     	;# 
  1961  0799                     	;# 
  1962  079A                     	;# 
  1963  079B                     	;# 
  1964  080C                     	;# 
  1965  080D                     	;# 
  1966  080E                     	;# 
  1967  080F                     	;# 
  1968  0810                     	;# 
  1969  0811                     	;# 
  1970  0812                     	;# 
  1971  0813                     	;# 
  1972  0814                     	;# 
  1973  081A                     	;# 
  1974  081A                     	;# 
  1975  081B                     	;# 
  1976  081C                     	;# 
  1977  081C                     	;# 
  1978  081D                     	;# 
  1979  081E                     	;# 
  1980  081F                     	;# 
  1981  088C                     	;# 
  1982  088D                     	;# 
  1983  088E                     	;# 
  1984  088F                     	;# 
  1985  0890                     	;# 
  1986  0891                     	;# 
  1987  0892                     	;# 
  1988  0893                     	;# 
  1989  0895                     	;# 
  1990  0896                     	;# 
  1991  090C                     	;# 
  1992  090E                     	;# 
  1993  090F                     	;# 
  1994  091F                     	;# 
  1995  098F                     	;# 
  1996  098F                     	;# 
  1997  0990                     	;# 
  1998  0991                     	;# 
  1999  0992                     	;# 
  2000  0993                     	;# 
  2001  0994                     	;# 
  2002  0995                     	;# 
  2003  0996                     	;# 
  2004  0997                     	;# 
  2005  0A19                     	;# 
  2006  0A19                     	;# 
  2007  0A1A                     	;# 
  2008  0A1A                     	;# 
  2009  0A1B                     	;# 
  2010  0A1B                     	;# 
  2011  0A1B                     	;# 
  2012  0A1C                     	;# 
  2013  0A1C                     	;# 
  2014  0A1D                     	;# 
  2015  0A1D                     	;# 
  2016  0A1E                     	;# 
  2017  0A1E                     	;# 
  2018  0A1F                     	;# 
  2019  0A1F                     	;# 
  2020  0A1F                     	;# 
  2021  1E0F                     	;# 
  2022  1E10                     	;# 
  2023  1E11                     	;# 
  2024  1E12                     	;# 
  2025  1E13                     	;# 
  2026  1E14                     	;# 
  2027  1E15                     	;# 
  2028  1E16                     	;# 
  2029  1E17                     	;# 
  2030  1E18                     	;# 
  2031  1E19                     	;# 
  2032  1E1A                     	;# 
  2033  1E1B                     	;# 
  2034  1E1C                     	;# 
  2035  1E1D                     	;# 
  2036  1E1E                     	;# 
  2037  1E1F                     	;# 
  2038  1E20                     	;# 
  2039  1E21                     	;# 
  2040  1E22                     	;# 
  2041  1E23                     	;# 
  2042  1E24                     	;# 
  2043  1E25                     	;# 
  2044  1E26                     	;# 
  2045  1E27                     	;# 
  2046  1E28                     	;# 
  2047  1E29                     	;# 
  2048  1E2A                     	;# 
  2049  1E2B                     	;# 
  2050  1E2C                     	;# 
  2051  1E2D                     	;# 
  2052  1E2E                     	;# 
  2053  1E2F                     	;# 
  2054  1E30                     	;# 
  2055  1E31                     	;# 
  2056  1E32                     	;# 
  2057  1E33                     	;# 
  2058  1E34                     	;# 
  2059  1E35                     	;# 
  2060  1E36                     	;# 
  2061  1E37                     	;# 
  2062  1E8F                     	;# 
  2063  1E90                     	;# 
  2064  1E91                     	;# 
  2065  1E92                     	;# 
  2066  1E93                     	;# 
  2067  1E9C                     	;# 
  2068  1EA1                     	;# 
  2069  1EA2                     	;# 
  2070  1EB1                     	;# 
  2071  1EBB                     	;# 
  2072  1EBC                     	;# 
  2073  1EBD                     	;# 
  2074  1EBE                     	;# 
  2075  1EC3                     	;# 
  2076  1EC5                     	;# 
  2077  1EC6                     	;# 
  2078  1EC7                     	;# 
  2079  1EC8                     	;# 
  2080  1EC9                     	;# 
  2081  1ECA                     	;# 
  2082  1ECB                     	;# 
  2083  1ECC                     	;# 
  2084  1ECD                     	;# 
  2085  1ECE                     	;# 
  2086  1F10                     	;# 
  2087  1F11                     	;# 
  2088  1F12                     	;# 
  2089  1F13                     	;# 
  2090  1F14                     	;# 
  2091  1F15                     	;# 
  2092  1F16                     	;# 
  2093  1F17                     	;# 
  2094  1F18                     	;# 
  2095  1F19                     	;# 
  2096  1F1A                     	;# 
  2097  1F1B                     	;# 
  2098  1F1C                     	;# 
  2099  1F1D                     	;# 
  2100  1F1E                     	;# 
  2101  1F1F                     	;# 
  2102  1F20                     	;# 
  2103  1F21                     	;# 
  2104  1F22                     	;# 
  2105  1F23                     	;# 
  2106  1F24                     	;# 
  2107  1F25                     	;# 
  2108  1F26                     	;# 
  2109  1F27                     	;# 
  2110  1F38                     	;# 
  2111  1F39                     	;# 
  2112  1F3A                     	;# 
  2113  1F3B                     	;# 
  2114  1F3C                     	;# 
  2115  1F3D                     	;# 
  2116  1F3E                     	;# 
  2117  1F3F                     	;# 
  2118  1F43                     	;# 
  2119  1F44                     	;# 
  2120  1F45                     	;# 
  2121  1F46                     	;# 
  2122  1F47                     	;# 
  2123  1F48                     	;# 
  2124  1F49                     	;# 
  2125  1F4A                     	;# 
  2126  1F4E                     	;# 
  2127  1F4F                     	;# 
  2128  1F50                     	;# 
  2129  1F51                     	;# 
  2130  1F52                     	;# 
  2131  1F53                     	;# 
  2132  1F54                     	;# 
  2133  1F55                     	;# 
  2134  1F65                     	;# 
  2135  1F68                     	;# 
  2136  1F69                     	;# 
  2137  1F6A                     	;# 
  2138  1F6B                     	;# 
  2139  1FE4                     	;# 
  2140  1FE5                     	;# 
  2141  1FE6                     	;# 
  2142  1FE7                     	;# 
  2143  1FE8                     	;# 
  2144  1FE8                     	;# 
  2145  1FE9                     	;# 
  2146  1FEA                     	;# 
  2147  1FEA                     	;# 
  2148  1FEB                     	;# 
  2149  1FED                     	;# 
  2150  1FEE                     	;# 
  2151  1FEF                     	;# 
  2152                           
  2153 ;; Function _EUSART1_DefaultFramingErrorHandler is unused but had its address taken
  2154  0000                     
  2155 ;; Function _EUSART1_DefaultOverrunErrorHandler is unused but had its address taken
  2156  0000                     
  2157 ;; Function _EUSART1_DefaultErrorHandler is unused but had its address taken
  2158  0000                     
  2159                           	psect	nvBANK0
  2160  0020                     __pnvBANK0:	
  2161  0020                     _INT_InterruptHandler:	
  2162  0020                     	ds	2
  2163  0022                     _EUSART1_ErrorHandler:	
  2164  0022                     	ds	2
  2165  0024                     _EUSART1_OverrunErrorHandler:	
  2166  0024                     	ds	2
  2167  0026                     _EUSART1_FramingErrorHandler:	
  2168  0026                     	ds	2
  2169  0028                     _data:	
  2170  0028                     	ds	1
  2171  0018                     _LATAbits	set	24
  2172  0019                     _LATBbits	set	25
  2173  001A                     _LATCbits	set	26
  2174  000B                     _INTCONbits	set	11
  2175  000C                     _PORTAbits	set	12
  2176  0014                     _TRISC	set	20
  2177  0013                     _TRISB	set	19
  2178  0012                     _TRISA	set	18
  2179  001A                     _LATC	set	26
  2180  0019                     _LATB	set	25
  2181  0018                     _LATA	set	24
  2182  011A                     _TX1REG	set	282
  2183  0119                     _RC1REG	set	281
  2184  011D                     _RC1STAbits	set	285
  2185  011E                     _TX1STAbits	set	286
  2186  011C                     _SP1BRGH	set	284
  2187  011B                     _SP1BRGL	set	283
  2188  011E                     _TX1STA	set	286
  2189  011D                     _RC1STA	set	285
  2190  011F                     _BAUD1CON	set	287
  2191  0716                     _PIE0bits	set	1814
  2192  070C                     _PIR0bits	set	1804
  2193  070F                     _PIR3bits	set	1807
  2194  079B                     _PMD5	set	1947
  2195  079A                     _PMD4	set	1946
  2196  0799                     _PMD3	set	1945
  2197  0798                     _PMD2	set	1944
  2198  0797                     _PMD1	set	1943
  2199  0796                     _PMD0	set	1942
  2200  0892                     _OSCTUNE	set	2194
  2201  0890                     _OSCSTAT	set	2192
  2202  0893                     _OSCFRQ	set	2195
  2203  0891                     _OSCEN	set	2193
  2204  088F                     _OSCCON3	set	2191
  2205  088D                     _OSCCON1	set	2189
  2206  1ECB                     _RX1DTPPS	set	7883
  2207  1E90                     _INTPPS	set	7824
  2208  1F26                     _RC6PPS	set	7974
  2209  1F68                     _INLVLE	set	8040
  2210  1F52                     _INLVLC	set	8018
  2211  1F47                     _INLVLB	set	8007
  2212  1F3C                     _INLVLA	set	7996
  2213  1F51                     _SLRCONC	set	8017
  2214  1F46                     _SLRCONB	set	8006
  2215  1F3B                     _SLRCONA	set	7995
  2216  1F50                     _ODCONC	set	8016
  2217  1F45                     _ODCONB	set	8005
  2218  1F3A                     _ODCONA	set	7994
  2219  1F4F                     _WPUC	set	8015
  2220  1F39                     _WPUA	set	7993
  2221  1F44                     _WPUB	set	8004
  2222  1F65                     _WPUE	set	8037
  2223  1F38                     _ANSELA	set	7992
  2224  1F43                     _ANSELB	set	8003
  2225  1F4E                     _ANSELC	set	8014
  2226                           
  2227                           ; #config settings
  2228  0000                     
  2229                           	psect	cinit
  2230  0016                     start_initialization:	
  2231  0016                     __initialization:	
  2232                           
  2233                           ; Clear objects allocated to COMMON
  2234  0016  01FB               	clrf	__pbssCOMMON& (0+127)
  2235                           
  2236                           ; Clear objects allocated to BANK0
  2237  0017  0140               	movlb	0	; select bank0
  2238  0018  01B1               	clrf	__pbssBANK0& (0+127)
  2239  0019  01B2               	clrf	(__pbssBANK0+1)& (0+127)
  2240  001A  01B3               	clrf	(__pbssBANK0+2)& (0+127)
  2241  001B  01B4               	clrf	(__pbssBANK0+3)& (0+127)
  2242  001C  01B5               	clrf	(__pbssBANK0+4)& (0+127)
  2243  001D  01B6               	clrf	(__pbssBANK0+5)& (0+127)
  2244  001E                     end_of_initialization:	
  2245                           ;End of C runtime variable initialization code
  2246                           
  2247  001E                     __end_of__initialization:	
  2248  001E  107E               	bcf	int$flags,0	;clear compiler interrupt flag (level 1)
  2249  001F  0140               	movlb	0
  2250  0020  3180  2822         	ljmp	_main	;jump to C main() function
  2251                           
  2252                           	psect	bssCOMMON
  2253  007B                     __pbssCOMMON:	
  2254  007B                     _eusart1RxLastError:	
  2255  007B                     	ds	1
  2256                           
  2257                           	psect	bssBANK0
  2258  0031                     __pbssBANK0:	
  2259  0031                     _currentB:	
  2260  0031                     	ds	2
  2261  0033                     _currentA:	
  2262  0033                     	ds	2
  2263  0035                     _foo:	
  2264  0035                     	ds	2
  2265                           
  2266                           	psect	cstackCOMMON
  2267  0070                     __pcstackCOMMON:	
  2268  0070                     ?_PMD_Initialize:	
  2269  0070                     ?_PIN_MANAGER_Initialize:	
  2270                           ; 1 bytes @ 0x0
  2271                           
  2272  0070                     ?_OSCILLATOR_Initialize:	
  2273                           ; 1 bytes @ 0x0
  2274                           
  2275  0070                     ?_EXT_INT_Initialize:	
  2276                           ; 1 bytes @ 0x0
  2277                           
  2278  0070                     ?_EUSART1_Initialize:	
  2279                           ; 1 bytes @ 0x0
  2280                           
  2281  0070                     ?_INT_CallBack:	
  2282                           ; 1 bytes @ 0x0
  2283                           
  2284  0070                     ?_SYSTEM_Initialize:	
  2285                           ; 1 bytes @ 0x0
  2286                           
  2287  0070                     ?_EUSART1_Read:	
  2288                           ; 1 bytes @ 0x0
  2289                           
  2290  0070                     ?_EUSART1_Write:	
  2291                           ; 1 bytes @ 0x0
  2292                           
  2293  0070                     ??_EUSART1_Write:	
  2294                           ; 1 bytes @ 0x0
  2295                           
  2296  0070                     ?_INT_ISR:	
  2297                           ; 1 bytes @ 0x0
  2298                           
  2299  0070                     ?_INT_DefaultInterruptHandler:	
  2300                           ; 1 bytes @ 0x0
  2301                           
  2302  0070                     ?_INTERRUPT_InterruptManager:	
  2303                           ; 1 bytes @ 0x0
  2304                           
  2305  0070                     ?_motorA_Back:	
  2306                           ; 1 bytes @ 0x0
  2307                           
  2308  0070                     ?_motorB_Back:	
  2309                           ; 1 bytes @ 0x0
  2310                           
  2311  0070                     ?_led:	
  2312                           ; 1 bytes @ 0x0
  2313                           
  2314  0070                     ?_Home:	
  2315                           ; 1 bytes @ 0x0
  2316                           
  2317  0070                     ?_motors_Enable:	
  2318                           ; 1 bytes @ 0x0
  2319                           
  2320  0070                     ?_main:	
  2321                           ; 1 bytes @ 0x0
  2322                           
  2323  0070                     EUSART1_Write@txData:	
  2324                           ; 1 bytes @ 0x0
  2325                           
  2326                           
  2327                           ; 1 bytes @ 0x0
  2328  0070                     	ds	1
  2329  0071                     ??_INT_DefaultInterruptHandler:	
  2330                           
  2331                           ; 1 bytes @ 0x1
  2332  0071                     	ds	1
  2333  0072                     ??_PMD_Initialize:	
  2334  0072                     ??_PIN_MANAGER_Initialize:	
  2335                           ; 1 bytes @ 0x2
  2336                           
  2337  0072                     ??_OSCILLATOR_Initialize:	
  2338                           ; 1 bytes @ 0x2
  2339                           
  2340  0072                     ?_EUSART1_SetFramingErrorHandler:	
  2341                           ; 1 bytes @ 0x2
  2342                           
  2343  0072                     ?_EUSART1_SetOverrunErrorHandler:	
  2344                           ; 1 bytes @ 0x2
  2345                           
  2346  0072                     ?_EUSART1_SetErrorHandler:	
  2347                           ; 1 bytes @ 0x2
  2348                           
  2349  0072                     ??_INT_CallBack:	
  2350                           ; 1 bytes @ 0x2
  2351                           
  2352  0072                     ??_EUSART1_Read:	
  2353                           ; 1 bytes @ 0x2
  2354                           
  2355  0072                     ??_INT_ISR:	
  2356                           ; 1 bytes @ 0x2
  2357                           
  2358  0072                     ?_INT_SetInterruptHandler:	
  2359                           ; 1 bytes @ 0x2
  2360                           
  2361  0072                     ??_INTERRUPT_InterruptManager:	
  2362                           ; 1 bytes @ 0x2
  2363                           
  2364  0072                     ?_direction:	
  2365                           ; 1 bytes @ 0x2
  2366                           
  2367  0072                     ??_motorA_Back:	
  2368                           ; 1 bytes @ 0x2
  2369                           
  2370  0072                     ??_motorB_Back:	
  2371                           ; 1 bytes @ 0x2
  2372                           
  2373  0072                     ??_led:	
  2374                           ; 1 bytes @ 0x2
  2375                           
  2376  0072                     ??_motors_Enable:	
  2377                           ; 1 bytes @ 0x2
  2378                           
  2379  0072                     led@a:	
  2380                           ; 1 bytes @ 0x2
  2381                           
  2382  0072                     EUSART1_SetFramingErrorHandler@interruptHandler:	
  2383                           ; 1 bytes @ 0x2
  2384                           
  2385  0072                     EUSART1_SetOverrunErrorHandler@interruptHandler:	
  2386                           ; 2 bytes @ 0x2
  2387                           
  2388  0072                     EUSART1_SetErrorHandler@interruptHandler:	
  2389                           ; 2 bytes @ 0x2
  2390                           
  2391  0072                     INT_SetInterruptHandler@InterruptHandler:	
  2392                           ; 2 bytes @ 0x2
  2393                           
  2394  0072                     direction@a:	
  2395                           ; 2 bytes @ 0x2
  2396                           
  2397                           
  2398                           ; 2 bytes @ 0x2
  2399  0072                     	ds	1
  2400  0073                     ??_Home:	
  2401  0073                     Home@a:	
  2402                           ; 1 bytes @ 0x3
  2403                           
  2404                           
  2405                           ; 1 bytes @ 0x3
  2406  0073                     	ds	1
  2407  0074                     ??_EXT_INT_Initialize:	
  2408  0074                     ??_EUSART1_Initialize:	
  2409                           ; 1 bytes @ 0x4
  2410                           
  2411  0074                     ??_EUSART1_SetFramingErrorHandler:	
  2412                           ; 1 bytes @ 0x4
  2413                           
  2414  0074                     ??_EUSART1_SetOverrunErrorHandler:	
  2415                           ; 1 bytes @ 0x4
  2416                           
  2417  0074                     ??_EUSART1_SetErrorHandler:	
  2418                           ; 1 bytes @ 0x4
  2419                           
  2420  0074                     ??_SYSTEM_Initialize:	
  2421                           ; 1 bytes @ 0x4
  2422                           
  2423  0074                     ??_INT_SetInterruptHandler:	
  2424                           ; 1 bytes @ 0x4
  2425                           
  2426  0074                     ??_direction:	
  2427                           ; 1 bytes @ 0x4
  2428                           
  2429  0074                     ??_motorController:	
  2430                           ; 1 bytes @ 0x4
  2431                           
  2432                           
  2433                           ; 1 bytes @ 0x4
  2434  0074                     	ds	1
  2435  0075                     motorController@i:	
  2436                           
  2437                           ; 2 bytes @ 0x5
  2438  0075                     	ds	2
  2439  0077                     motorController@i_511:	
  2440                           
  2441                           ; 2 bytes @ 0x7
  2442  0077                     	ds	2
  2443  0079                     ??_main:	
  2444                           
  2445                           ; 1 bytes @ 0x9
  2446  0079                     	ds	2
  2447                           
  2448                           	psect	cstackBANK0
  2449  0029                     __pcstackBANK0:	
  2450  0029                     ?_motorController:	
  2451  0029                     motorController@stepsA:	
  2452                           ; 1 bytes @ 0x0
  2453                           
  2454                           
  2455                           ; 2 bytes @ 0x0
  2456  0029                     	ds	2
  2457  002B                     motorController@stepsB:	
  2458                           
  2459                           ; 2 bytes @ 0x2
  2460  002B                     	ds	2
  2461  002D                     motorController@dirA:	
  2462                           
  2463                           ; 2 bytes @ 0x4
  2464  002D                     	ds	2
  2465  002F                     motorController@dirB:	
  2466                           
  2467                           ; 2 bytes @ 0x6
  2468  002F                     	ds	2
  2469                           
  2470                           	psect	maintext
  2471  0022                     __pmaintext:	
  2472 ;;
  2473 ;;Main: autosize = 0, tempsize = 2, incstack = 0, save=0
  2474 ;;
  2475 ;; *************** function _main *****************
  2476 ;; Defined at:
  2477 ;;		line 227 in file "main.c"
  2478 ;; Parameters:    Size  Location     Type
  2479 ;;		None
  2480 ;; Auto vars:     Size  Location     Type
  2481 ;;  touchSensOld    2    0        int 
  2482 ;;  touchSens       2    0        int 
  2483 ;;  switchState     1    0        unsigned char 
  2484 ;;  transmit        1    0        unsigned char 
  2485 ;; Return value:  Size  Location     Type
  2486 ;;                  1    wreg      void 
  2487 ;; Registers used:
  2488 ;;		wreg, status,2, status,0, pclath, cstack
  2489 ;; Tracked objects:
  2490 ;;		On entry : B3F/0
  2491 ;;		On exit  : 0/0
  2492 ;;		Unchanged: 0/0
  2493 ;; Data sizes:     COMMON   BANK0   BANK1   BANK2   BANK3   BANK4   BANK5   BANK6   BANK7   BANK8   BANK9  BANK10  BANK1
      +1  BANK12
  2494 ;;      Params:         0       0       0       0       0       0       0       0       0       0       0       0       
      +0       0
  2495 ;;      Locals:         0       2       0       0       0       0       0       0       0       0       0       0       
      +0       0
  2496 ;;      Temps:          2       0       0       0       0       0       0       0       0       0       0       0       
      +0       0
  2497 ;;      Totals:         2       2       0       0       0       0       0       0       0       0       0       0       
      +0       0
  2498 ;;Total ram usage:        4 bytes
  2499 ;; Hardware stack levels required when called:    8
  2500 ;; This function calls:
  2501 ;;		_EUSART1_Initialize
  2502 ;;		_EUSART1_Read
  2503 ;;		_Home
  2504 ;;		_SYSTEM_Initialize
  2505 ;;		_motorController
  2506 ;;		_motors_Enable
  2507 ;; This function is called by:
  2508 ;;		Startup code after reset
  2509 ;; This function uses a non-reentrant model
  2510 ;;
  2511                           
  2512                           
  2513                           ;psect for function _main
  2514  0022                     _main:	
  2515  0022                     l1451:	
  2516                           ;incstack = 0
  2517                           ; Regs used in _main: [wreg+status,2+status,0+pclath+cstack]
  2518                           
  2519                           
  2520                           ;main.c: 230:     EUSART1_Initialize();
  2521  0022  3181  213A  3180   	fcall	_EUSART1_Initialize
  2522                           
  2523                           ;main.c: 231:     SYSTEM_Initialize();
  2524  0025  3181  219D  3180   	fcall	_SYSTEM_Initialize
  2525  0028                     l1453:	
  2526                           
  2527                           ;main.c: 240:     (INTCONbits.GIE = 1);
  2528  0028  178B               	bsf	11,7	;volatile
  2529  0029                     l1455:	
  2530                           
  2531                           ;main.c: 241:     (INTCONbits.PEIE = 1);
  2532  0029  170B               	bsf	11,6	;volatile
  2533  002A                     l1457:	
  2534  002A                     l1459:	
  2535                           
  2536                           ;main.c: 258:     data = EUSART1_Read();
  2537  002A  3181  21AD  3180   	fcall	_EUSART1_Read
  2538  002D  00F9               	movwf	??_main
  2539  002E  0879               	movf	??_main,w
  2540  002F  0140               	movlb	0	; select bank0
  2541  0030  00A8               	movwf	_data
  2542  0031                     l1461:	
  2543                           
  2544                           ;main.c: 260:     {;main.c: 263:         motors_Enable();
  2545  0031  3182  2206  3180   	fcall	_motors_Enable
  2546  0034                     l1463:	
  2547                           
  2548                           ;main.c: 266:         Home('f');
  2549  0034  3066               	movlw	102
  2550  0035  3181  215B  3180   	fcall	_Home
  2551  0038                     l1465:	
  2552                           
  2553                           ;main.c: 268:         motorController(100,15,1,3);
  2554  0038  3064               	movlw	100
  2555  0039  0140               	movlb	0	; select bank0
  2556  003A  00A9               	movwf	motorController@stepsA
  2557  003B  3000               	movlw	0
  2558  003C  00AA               	movwf	motorController@stepsA+1
  2559  003D  300F               	movlw	15
  2560  003E  00AB               	movwf	motorController@stepsB
  2561  003F  3000               	movlw	0
  2562  0040  00AC               	movwf	motorController@stepsB+1
  2563  0041  3001               	movlw	1
  2564  0042  00AD               	movwf	motorController@dirA
  2565  0043  3000               	movlw	0
  2566  0044  00AE               	movwf	motorController@dirA+1
  2567  0045  3003               	movlw	3
  2568  0046  00AF               	movwf	motorController@dirB
  2569  0047  3000               	movlw	0
  2570  0048  00B0               	movwf	motorController@dirB+1
  2571  0049  3180  2086  3180   	fcall	_motorController
  2572  004C                     l1467:	
  2573  004C  0140               	movlb	0	; select bank0
  2574  004D  1498               	bsf	24,1	;volatile
  2575  004E                     l1469:	
  2576                           
  2577                           ;main.c: 270:         motorController(510,10,1,3);
  2578  004E  30FE               	movlw	254
  2579  004F  00A9               	movwf	motorController@stepsA
  2580  0050  3001               	movlw	1
  2581  0051  00AA               	movwf	motorController@stepsA+1
  2582  0052  300A               	movlw	10
  2583  0053  00AB               	movwf	motorController@stepsB
  2584  0054  3000               	movlw	0
  2585  0055  00AC               	movwf	motorController@stepsB+1
  2586  0056  3001               	movlw	1
  2587  0057  00AD               	movwf	motorController@dirA
  2588  0058  3000               	movlw	0
  2589  0059  00AE               	movwf	motorController@dirA+1
  2590  005A  3003               	movlw	3
  2591  005B  00AF               	movwf	motorController@dirB
  2592  005C  3000               	movlw	0
  2593  005D  00B0               	movwf	motorController@dirB+1
  2594  005E  3180  2086  3180   	fcall	_motorController
  2595  0061                     l1471:	
  2596                           
  2597                           ;main.c: 271:         motorController(510,10,2,4);
  2598  0061  30FE               	movlw	254
  2599  0062  0140               	movlb	0	; select bank0
  2600  0063  00A9               	movwf	motorController@stepsA
  2601  0064  3001               	movlw	1
  2602  0065  00AA               	movwf	motorController@stepsA+1
  2603  0066  300A               	movlw	10
  2604  0067  00AB               	movwf	motorController@stepsB
  2605  0068  3000               	movlw	0
  2606  0069  00AC               	movwf	motorController@stepsB+1
  2607  006A  3002               	movlw	2
  2608  006B  00AD               	movwf	motorController@dirA
  2609  006C  3000               	movlw	0
  2610  006D  00AE               	movwf	motorController@dirA+1
  2611  006E  3004               	movlw	4
  2612  006F  00AF               	movwf	motorController@dirB
  2613  0070  3000               	movlw	0
  2614  0071  00B0               	movwf	motorController@dirB+1
  2615  0072  3180  2086  3180   	fcall	_motorController
  2616  0075                     l1473:	
  2617  0075  0140               	movlb	0	; select bank0
  2618  0076  1098               	bcf	24,1	;volatile
  2619  0077                     l1475:	
  2620                           
  2621                           ;main.c: 275:         _delay((unsigned long)((30000)*(1000000/4000.0)));
  2622  0077  3027               	movlw	39
  2623  0078  00FA               	movwf	??_main+1
  2624  0079  300D               	movlw	13
  2625  007A  00F9               	movwf	??_main
  2626  007B  3026               	movlw	38
  2627  007C                     u537:	
  2628  007C  0B89               	decfsz	9,f
  2629  007D  287C               	goto	u537
  2630  007E  0BF9               	decfsz	??_main,f
  2631  007F  287C               	goto	u537
  2632  0080  0BFA               	decfsz	??_main+1,f
  2633  0081  287C               	goto	u537
  2634  0082  3200               	nop2
  2635  0083  2831               	goto	l1461
  2636  0084  3180  2814         	ljmp	start
  2637  0086                     __end_of_main:	
  2638                           
  2639                           	psect	text1
  2640  0206                     __ptext1:	
  2641 ;; *************** function _motors_Enable *****************
  2642 ;; Defined at:
  2643 ;;		line 209 in file "main.c"
  2644 ;; Parameters:    Size  Location     Type
  2645 ;;		None
  2646 ;; Auto vars:     Size  Location     Type
  2647 ;;		None
  2648 ;; Return value:  Size  Location     Type
  2649 ;;                  1    wreg      void 
  2650 ;; Registers used:
  2651 ;;		None
  2652 ;; Tracked objects:
  2653 ;;		On entry : 0/0
  2654 ;;		On exit  : 0/0
  2655 ;;		Unchanged: 0/0
  2656 ;; Data sizes:     COMMON   BANK0   BANK1   BANK2   BANK3   BANK4   BANK5   BANK6   BANK7   BANK8   BANK9  BANK10  BANK1
      +1  BANK12
  2657 ;;      Params:         0       0       0       0       0       0       0       0       0       0       0       0       
      +0       0
  2658 ;;      Locals:         0       0       0       0       0       0       0       0       0       0       0       0       
      +0       0
  2659 ;;      Temps:          0       0       0       0       0       0       0       0       0       0       0       0       
      +0       0
  2660 ;;      Totals:         0       0       0       0       0       0       0       0       0       0       0       0       
      +0       0
  2661 ;;Total ram usage:        0 bytes
  2662 ;; Hardware stack levels used:    1
  2663 ;; Hardware stack levels required when called:    5
  2664 ;; This function calls:
  2665 ;;		Nothing
  2666 ;; This function is called by:
  2667 ;;		_main
  2668 ;; This function uses a non-reentrant model
  2669 ;;
  2670                           
  2671                           
  2672                           ;psect for function _motors_Enable
  2673  0206                     _motors_Enable:	
  2674  0206                     l399:	
  2675                           ;incstack = 0
  2676                           ; Regs used in _motors_Enable: []
  2677                           ;main.c: 210:     do { LATAbits.LATA6 = 0; } while(0);
  2678                           
  2679  0206  0140               	movlb	0	; select bank0
  2680  0207  1318               	bcf	24,6	;volatile
  2681  0208                     l401:	
  2682                           ;main.c: 211:     do { LATCbits.LATC0 = 0; } while(0);
  2683                           
  2684  0208  101A               	bcf	26,0	;volatile
  2685  0209                     l403:	
  2686                           ;main.c: 212:     do { LATAbits.LATA7 = 0; } while(0);
  2687                           
  2688  0209  1398               	bcf	24,7	;volatile
  2689  020A                     l405:	
  2690                           ;main.c: 215:     do { LATBbits.LATB2 = 0; } while(0);
  2691                           
  2692  020A  1119               	bcf	25,2	;volatile
  2693  020B                     l407:	
  2694                           ;main.c: 216:     do { LATBbits.LATB3 = 1; } while(0);
  2695                           
  2696  020B  1599               	bsf	25,3	;volatile
  2697  020C                     l409:	
  2698                           ;main.c: 217:     do { LATBbits.LATB1 = 0; } while(0);
  2699                           
  2700  020C  1099               	bcf	25,1	;volatile
  2701  020D                     l411:	
  2702  020D  0008               	return
  2703  020E                     __end_of_motors_Enable:	
  2704                           
  2705                           	psect	text2
  2706  0086                     __ptext2:	
  2707 ;; *************** function _motorController *****************
  2708 ;; Defined at:
  2709 ;;		line 93 in file "main.c"
  2710 ;; Parameters:    Size  Location     Type
  2711 ;;  stepsA          2    0[BANK0 ] int 
  2712 ;;  stepsB          2    2[BANK0 ] int 
  2713 ;;  dirA            2    4[BANK0 ] int 
  2714 ;;  dirB            2    6[BANK0 ] int 
  2715 ;; Auto vars:     Size  Location     Type
  2716 ;;  i               2    7[COMMON] int 
  2717 ;;  i               2    5[COMMON] int 
  2718 ;; Return value:  Size  Location     Type
  2719 ;;                  1    wreg      void 
  2720 ;; Registers used:
  2721 ;;		wreg, status,2, status,0, pclath, cstack
  2722 ;; Tracked objects:
  2723 ;;		On entry : 0/0
  2724 ;;		On exit  : 0/0
  2725 ;;		Unchanged: 0/0
  2726 ;; Data sizes:     COMMON   BANK0   BANK1   BANK2   BANK3   BANK4   BANK5   BANK6   BANK7   BANK8   BANK9  BANK10  BANK1
      +1  BANK12
  2727 ;;      Params:         0       8       0       0       0       0       0       0       0       0       0       0       
      +0       0
  2728 ;;      Locals:         4       0       0       0       0       0       0       0       0       0       0       0       
      +0       0
  2729 ;;      Temps:          1       0       0       0       0       0       0       0       0       0       0       0       
      +0       0
  2730 ;;      Totals:         5       8       0       0       0       0       0       0       0       0       0       0       
      +0       0
  2731 ;;Total ram usage:       13 bytes
  2732 ;; Hardware stack levels used:    1
  2733 ;; Hardware stack levels required when called:    6
  2734 ;; This function calls:
  2735 ;;		_direction
  2736 ;; This function is called by:
  2737 ;;		_main
  2738 ;; This function uses a non-reentrant model
  2739 ;;
  2740                           
  2741                           
  2742                           ;psect for function _motorController
  2743  0086                     _motorController:	
  2744  0086                     l1425:	
  2745                           ;incstack = 0
  2746                           ; Regs used in _motorController: [wreg+status,2+status,0+pclath+cstack]
  2747                           
  2748                           
  2749                           ;main.c: 94:     direction(dirA);
  2750  0086  0140               	movlb	0	; select bank0
  2751  0087  082E               	movf	motorController@dirA+1,w
  2752  0088  00F3               	movwf	direction@a+1
  2753  0089  082D               	movf	motorController@dirA,w
  2754  008A  00F2               	movwf	direction@a
  2755  008B  3181  2113  3180   	fcall	_direction
  2756                           
  2757                           ;main.c: 95:     direction(dirB);
  2758  008E  0140               	movlb	0	; select bank0
  2759  008F  0830               	movf	motorController@dirB+1,w
  2760  0090  00F3               	movwf	direction@a+1
  2761  0091  082F               	movf	motorController@dirB,w
  2762  0092  00F2               	movwf	direction@a
  2763  0093  3181  2113  3180   	fcall	_direction
  2764  0096                     l1427:	
  2765                           
  2766                           ;main.c: 96:     for(int i = 0; i < stepsA; i++){
  2767  0096  01F5               	clrf	motorController@i
  2768  0097  01F6               	clrf	motorController@i+1
  2769  0098  28A9               	goto	l303
  2770  0099                     l305:	
  2771                           ;main.c: 97:         do { LATCbits.LATC2 = 1; } while(0);
  2772                           
  2773  0099  0140               	movlb	0	; select bank0
  2774  009A  151A               	bsf	26,2	;volatile
  2775  009B                     l1429:	
  2776                           
  2777                           ;main.c: 98:         _delay((unsigned long)((5)*(1000000/4000.0)));
  2778  009B  30FA               	movlw	250
  2779  009C                     u547:	
  2780  009C  3200               	nop2
  2781  009D  0B89               	decfsz	9,f
  2782  009E  289C               	goto	u547
  2783  009F                     l1431:	
  2784  009F  0140               	movlb	0	; select bank0
  2785  00A0  111A               	bcf	26,2	;volatile
  2786  00A1                     l308:	
  2787                           
  2788                           ;main.c: 100:         _delay((unsigned long)((5)*(1000000/4000.0)));
  2789  00A1  30FA               	movlw	250
  2790  00A2                     u557:	
  2791  00A2  3200               	nop2
  2792  00A3  0B89               	decfsz	9,f
  2793  00A4  28A2               	goto	u557
  2794                           
  2795                           ;main.c: 102:     }
  2796  00A5  3001               	movlw	1
  2797  00A6  07F5               	addwf	motorController@i,f
  2798  00A7  3000               	movlw	0
  2799  00A8  3DF6               	addwfc	motorController@i+1,f
  2800  00A9                     l303:	
  2801  00A9  0876               	movf	motorController@i+1,w
  2802  00AA  3A80               	xorlw	128
  2803  00AB  00F4               	movwf	??_motorController
  2804  00AC  0140               	movlb	0	; select bank0
  2805  00AD  082A               	movf	motorController@stepsA+1,w
  2806  00AE  3A80               	xorlw	128
  2807  00AF  0274               	subwf	??_motorController,w
  2808  00B0  1D03               	skipz
  2809  00B1  28B4               	goto	u495
  2810  00B2  0829               	movf	motorController@stepsA,w
  2811  00B3  0275               	subwf	motorController@i,w
  2812  00B4                     u495:	
  2813  00B4  1C03               	skipc
  2814  00B5  28B7               	goto	u491
  2815  00B6  28B8               	goto	u490
  2816  00B7                     u491:	
  2817  00B7  2899               	goto	l305
  2818  00B8                     u490:	
  2819  00B8                     l1433:	
  2820                           
  2821                           ;main.c: 103:     for(int i = 0; i < stepsB; i++){
  2822  00B8  01F7               	clrf	motorController@i_511
  2823  00B9  01F8               	clrf	motorController@i_511+1
  2824  00BA  28D3               	goto	l310
  2825  00BB                     l312:	
  2826                           ;main.c: 104:         do { LATBbits.LATB5 = 1; } while(0);
  2827                           
  2828  00BB  0140               	movlb	0	; select bank0
  2829  00BC  1699               	bsf	25,5	;volatile
  2830  00BD                     l1435:	
  2831                           
  2832                           ;main.c: 105:         _delay((unsigned long)((50)*(1000000/4000.0)));
  2833  00BD  3011               	movlw	17
  2834  00BE  00F4               	movwf	??_motorController
  2835  00BF  303A               	movlw	58
  2836  00C0                     u567:	
  2837  00C0  0B89               	decfsz	9,f
  2838  00C1  28C0               	goto	u567
  2839  00C2  0BF4               	decfsz	??_motorController,f
  2840  00C3  28C0               	goto	u567
  2841  00C4  3200               	nop2
  2842  00C5                     l1437:	
  2843  00C5  0140               	movlb	0	; select bank0
  2844  00C6  1299               	bcf	25,5	;volatile
  2845  00C7                     l315:	
  2846                           
  2847                           ;main.c: 107:         _delay((unsigned long)((50)*(1000000/4000.0)));
  2848  00C7  3011               	movlw	17
  2849  00C8  00F4               	movwf	??_motorController
  2850  00C9  303A               	movlw	58
  2851  00CA                     u577:	
  2852  00CA  0B89               	decfsz	9,f
  2853  00CB  28CA               	goto	u577
  2854  00CC  0BF4               	decfsz	??_motorController,f
  2855  00CD  28CA               	goto	u577
  2856  00CE  3200               	nop2
  2857                           
  2858                           ;main.c: 108:     }
  2859  00CF  3001               	movlw	1
  2860  00D0  07F7               	addwf	motorController@i_511,f
  2861  00D1  3000               	movlw	0
  2862  00D2  3DF8               	addwfc	motorController@i_511+1,f
  2863  00D3                     l310:	
  2864  00D3  0878               	movf	motorController@i_511+1,w
  2865  00D4  3A80               	xorlw	128
  2866  00D5  00F4               	movwf	??_motorController
  2867  00D6  0140               	movlb	0	; select bank0
  2868  00D7  082C               	movf	motorController@stepsB+1,w
  2869  00D8  3A80               	xorlw	128
  2870  00D9  0274               	subwf	??_motorController,w
  2871  00DA  1D03               	skipz
  2872  00DB  28DE               	goto	u505
  2873  00DC  082B               	movf	motorController@stepsB,w
  2874  00DD  0277               	subwf	motorController@i_511,w
  2875  00DE                     u505:	
  2876  00DE  1C03               	skipc
  2877  00DF  28E1               	goto	u501
  2878  00E0  28E2               	goto	u500
  2879  00E1                     u501:	
  2880  00E1  28BB               	goto	l312
  2881  00E2                     u500:	
  2882  00E2                     l317:	
  2883  00E2  0008               	return
  2884  00E3                     __end_of_motorController:	
  2885                           
  2886                           	psect	text3
  2887  0113                     __ptext3:	
  2888 ;; *************** function _direction *****************
  2889 ;; Defined at:
  2890 ;;		line 56 in file "main.c"
  2891 ;; Parameters:    Size  Location     Type
  2892 ;;  a               2    2[COMMON] int 
  2893 ;; Auto vars:     Size  Location     Type
  2894 ;;		None
  2895 ;; Return value:  Size  Location     Type
  2896 ;;                  1    wreg      void 
  2897 ;; Registers used:
  2898 ;;		wreg, status,2, status,0
  2899 ;; Tracked objects:
  2900 ;;		On entry : 0/0
  2901 ;;		On exit  : 0/0
  2902 ;;		Unchanged: 0/0
  2903 ;; Data sizes:     COMMON   BANK0   BANK1   BANK2   BANK3   BANK4   BANK5   BANK6   BANK7   BANK8   BANK9  BANK10  BANK1
      +1  BANK12
  2904 ;;      Params:         2       0       0       0       0       0       0       0       0       0       0       0       
      +0       0
  2905 ;;      Locals:         0       0       0       0       0       0       0       0       0       0       0       0       
      +0       0
  2906 ;;      Temps:          0       0       0       0       0       0       0       0       0       0       0       0       
      +0       0
  2907 ;;      Totals:         2       0       0       0       0       0       0       0       0       0       0       0       
      +0       0
  2908 ;;Total ram usage:        2 bytes
  2909 ;; Hardware stack levels used:    1
  2910 ;; Hardware stack levels required when called:    5
  2911 ;; This function calls:
  2912 ;;		Nothing
  2913 ;; This function is called by:
  2914 ;;		_motorController
  2915 ;;		_step
  2916 ;; This function uses a non-reentrant model
  2917 ;;
  2918                           
  2919                           
  2920                           ;psect for function _direction
  2921  0113                     _direction:	
  2922  0113                     l1417:	
  2923                           ;incstack = 0
  2924                           ; Regs used in _direction: [wreg+status,2+status,0]
  2925                           
  2926                           
  2927                           ;main.c: 58:     if(a == 1){
  2928  0113  0372               	decf	direction@a,w
  2929  0114  0473               	iorwf	direction@a+1,w
  2930  0115  1D03               	btfss	3,2
  2931  0116  2918               	goto	u451
  2932  0117  2919               	goto	u450
  2933  0118                     u451:	
  2934  0118  291C               	goto	l1419
  2935  0119                     u450:	
  2936  0119                     l273:	
  2937                           ;main.c: 59:         do { LATCbits.LATC1 = 1; } while(0);
  2938                           
  2939  0119  0140               	movlb	0	; select bank0
  2940  011A  149A               	bsf	26,1	;volatile
  2941  011B  2939               	goto	l287
  2942  011C                     l1419:	
  2943  011C  3002               	movlw	2
  2944  011D  0672               	xorwf	direction@a,w
  2945  011E  0473               	iorwf	direction@a+1,w
  2946  011F  1D03               	btfss	3,2
  2947  0120  2922               	goto	u461
  2948  0121  2923               	goto	u460
  2949  0122                     u461:	
  2950  0122  2926               	goto	l1421
  2951  0123                     u460:	
  2952  0123                     l277:	
  2953                           ;main.c: 63:         do { LATCbits.LATC1 = 0; } while(0);
  2954                           
  2955  0123  0140               	movlb	0	; select bank0
  2956  0124  109A               	bcf	26,1	;volatile
  2957  0125  2939               	goto	l287
  2958  0126                     l1421:	
  2959  0126  3003               	movlw	3
  2960  0127  0672               	xorwf	direction@a,w
  2961  0128  0473               	iorwf	direction@a+1,w
  2962  0129  1D03               	btfss	3,2
  2963  012A  292C               	goto	u471
  2964  012B  292D               	goto	u470
  2965  012C                     u471:	
  2966  012C  2930               	goto	l1423
  2967  012D                     u470:	
  2968  012D                     l281:	
  2969                           ;main.c: 66:         do { LATBbits.LATB4 = 1; } while(0);
  2970                           
  2971  012D  0140               	movlb	0	; select bank0
  2972  012E  1619               	bsf	25,4	;volatile
  2973  012F  2939               	goto	l287
  2974  0130                     l1423:	
  2975  0130  3004               	movlw	4
  2976  0131  0672               	xorwf	direction@a,w
  2977  0132  0473               	iorwf	direction@a+1,w
  2978  0133  1D03               	btfss	3,2
  2979  0134  2936               	goto	u481
  2980  0135  2937               	goto	u480
  2981  0136                     u481:	
  2982  0136  2939               	goto	l287
  2983  0137                     u480:	
  2984  0137                     l285:	
  2985                           ;main.c: 69:         do { LATBbits.LATB4 = 0; } while(0);
  2986                           
  2987  0137  0140               	movlb	0	; select bank0
  2988  0138  1219               	bcf	25,4	;volatile
  2989  0139                     l287:	
  2990  0139  0008               	return
  2991  013A                     __end_of_direction:	
  2992                           
  2993                           	psect	text4
  2994  019D                     __ptext4:	
  2995 ;; *************** function _SYSTEM_Initialize *****************
  2996 ;; Defined at:
  2997 ;;		line 50 in file "mcc_generated_files/mcc.c"
  2998 ;; Parameters:    Size  Location     Type
  2999 ;;		None
  3000 ;; Auto vars:     Size  Location     Type
  3001 ;;		None
  3002 ;; Return value:  Size  Location     Type
  3003 ;;                  1    wreg      void 
  3004 ;; Registers used:
  3005 ;;		wreg, status,2, status,0, pclath, cstack
  3006 ;; Tracked objects:
  3007 ;;		On entry : 0/0
  3008 ;;		On exit  : 0/0
  3009 ;;		Unchanged: 0/0
  3010 ;; Data sizes:     COMMON   BANK0   BANK1   BANK2   BANK3   BANK4   BANK5   BANK6   BANK7   BANK8   BANK9  BANK10  BANK1
      +1  BANK12
  3011 ;;      Params:         0       0       0       0       0       0       0       0       0       0       0       0       
      +0       0
  3012 ;;      Locals:         0       0       0       0       0       0       0       0       0       0       0       0       
      +0       0
  3013 ;;      Temps:          0       0       0       0       0       0       0       0       0       0       0       0       
      +0       0
  3014 ;;      Totals:         0       0       0       0       0       0       0       0       0       0       0       0       
      +0       0
  3015 ;;Total ram usage:        0 bytes
  3016 ;; Hardware stack levels used:    1
  3017 ;; Hardware stack levels required when called:    7
  3018 ;; This function calls:
  3019 ;;		_EUSART1_Initialize
  3020 ;;		_EXT_INT_Initialize
  3021 ;;		_OSCILLATOR_Initialize
  3022 ;;		_PIN_MANAGER_Initialize
  3023 ;;		_PMD_Initialize
  3024 ;; This function is called by:
  3025 ;;		_main
  3026 ;; This function uses a non-reentrant model
  3027 ;;
  3028                           
  3029                           
  3030                           ;psect for function _SYSTEM_Initialize
  3031  019D                     _SYSTEM_Initialize:	
  3032  019D                     l1315:	
  3033                           ;incstack = 0
  3034                           ; Regs used in _SYSTEM_Initialize: [wreg+status,2+status,0+pclath+cstack]
  3035                           
  3036                           
  3037                           ;mcc_generated_files/mcc.c: 52:     PMD_Initialize();
  3038  019D  3182  220E  3181   	fcall	_PMD_Initialize
  3039  01A0                     l1317:	
  3040                           
  3041                           ;mcc_generated_files/mcc.c: 53:     PIN_MANAGER_Initialize();
  3042  01A0  3180  20E3  3181   	fcall	_PIN_MANAGER_Initialize
  3043  01A3                     l1319:	
  3044                           
  3045                           ;mcc_generated_files/mcc.c: 54:     OSCILLATOR_Initialize();
  3046  01A3  3181  21F2  3181   	fcall	_OSCILLATOR_Initialize
  3047  01A6                     l1321:	
  3048                           
  3049                           ;mcc_generated_files/mcc.c: 55:     EXT_INT_Initialize();
  3050  01A6  3181  21D8  3181   	fcall	_EXT_INT_Initialize
  3051  01A9                     l1323:	
  3052                           
  3053                           ;mcc_generated_files/mcc.c: 56:     EUSART1_Initialize();
  3054  01A9  3181  213A  3181   	fcall	_EUSART1_Initialize
  3055  01AC                     l37:	
  3056  01AC  0008               	return
  3057  01AD                     __end_of_SYSTEM_Initialize:	
  3058                           
  3059                           	psect	text5
  3060  020E                     __ptext5:	
  3061 ;; *************** function _PMD_Initialize *****************
  3062 ;; Defined at:
  3063 ;;		line 75 in file "mcc_generated_files/mcc.c"
  3064 ;; Parameters:    Size  Location     Type
  3065 ;;		None
  3066 ;; Auto vars:     Size  Location     Type
  3067 ;;		None
  3068 ;; Return value:  Size  Location     Type
  3069 ;;                  1    wreg      void 
  3070 ;; Registers used:
  3071 ;;		status,2
  3072 ;; Tracked objects:
  3073 ;;		On entry : 0/0
  3074 ;;		On exit  : 0/0
  3075 ;;		Unchanged: 0/0
  3076 ;; Data sizes:     COMMON   BANK0   BANK1   BANK2   BANK3   BANK4   BANK5   BANK6   BANK7   BANK8   BANK9  BANK10  BANK1
      +1  BANK12
  3077 ;;      Params:         0       0       0       0       0       0       0       0       0       0       0       0       
      +0       0
  3078 ;;      Locals:         0       0       0       0       0       0       0       0       0       0       0       0       
      +0       0
  3079 ;;      Temps:          0       0       0       0       0       0       0       0       0       0       0       0       
      +0       0
  3080 ;;      Totals:         0       0       0       0       0       0       0       0       0       0       0       0       
      +0       0
  3081 ;;Total ram usage:        0 bytes
  3082 ;; Hardware stack levels used:    1
  3083 ;; Hardware stack levels required when called:    5
  3084 ;; This function calls:
  3085 ;;		Nothing
  3086 ;; This function is called by:
  3087 ;;		_SYSTEM_Initialize
  3088 ;; This function uses a non-reentrant model
  3089 ;;
  3090                           
  3091                           
  3092                           ;psect for function _PMD_Initialize
  3093  020E                     _PMD_Initialize:	
  3094  020E                     l1219:	
  3095                           ;incstack = 0
  3096                           ; Regs used in _PMD_Initialize: [status,2]
  3097                           
  3098                           
  3099                           ;mcc_generated_files/mcc.c: 78:     PMD0 = 0x00;
  3100  020E  014F               	movlb	15	; select bank15
  3101  020F  0196               	clrf	22	;volatile
  3102                           
  3103                           ;mcc_generated_files/mcc.c: 80:     PMD1 = 0x00;
  3104  0210  0197               	clrf	23	;volatile
  3105                           
  3106                           ;mcc_generated_files/mcc.c: 82:     PMD2 = 0x00;
  3107  0211  0198               	clrf	24	;volatile
  3108                           
  3109                           ;mcc_generated_files/mcc.c: 84:     PMD3 = 0x00;
  3110  0212  0199               	clrf	25	;volatile
  3111                           
  3112                           ;mcc_generated_files/mcc.c: 86:     PMD4 = 0x00;
  3113  0213  019A               	clrf	26	;volatile
  3114                           
  3115                           ;mcc_generated_files/mcc.c: 88:     PMD5 = 0x00;
  3116  0214  019B               	clrf	27	;volatile
  3117  0215                     l43:	
  3118  0215  0008               	return
  3119  0216                     __end_of_PMD_Initialize:	
  3120                           
  3121                           	psect	text6
  3122  00E3                     __ptext6:	
  3123 ;; *************** function _PIN_MANAGER_Initialize *****************
  3124 ;; Defined at:
  3125 ;;		line 55 in file "mcc_generated_files/pin_manager.c"
  3126 ;; Parameters:    Size  Location     Type
  3127 ;;		None
  3128 ;; Auto vars:     Size  Location     Type
  3129 ;;		None
  3130 ;; Return value:  Size  Location     Type
  3131 ;;                  1    wreg      void 
  3132 ;; Registers used:
  3133 ;;		wreg, status,2
  3134 ;; Tracked objects:
  3135 ;;		On entry : 0/0
  3136 ;;		On exit  : 0/0
  3137 ;;		Unchanged: 0/0
  3138 ;; Data sizes:     COMMON   BANK0   BANK1   BANK2   BANK3   BANK4   BANK5   BANK6   BANK7   BANK8   BANK9  BANK10  BANK1
      +1  BANK12
  3139 ;;      Params:         0       0       0       0       0       0       0       0       0       0       0       0       
      +0       0
  3140 ;;      Locals:         0       0       0       0       0       0       0       0       0       0       0       0       
      +0       0
  3141 ;;      Temps:          0       0       0       0       0       0       0       0       0       0       0       0       
      +0       0
  3142 ;;      Totals:         0       0       0       0       0       0       0       0       0       0       0       0       
      +0       0
  3143 ;;Total ram usage:        0 bytes
  3144 ;; Hardware stack levels used:    1
  3145 ;; Hardware stack levels required when called:    5
  3146 ;; This function calls:
  3147 ;;		Nothing
  3148 ;; This function is called by:
  3149 ;;		_SYSTEM_Initialize
  3150 ;; This function uses a non-reentrant model
  3151 ;;
  3152                           
  3153                           
  3154                           ;psect for function _PIN_MANAGER_Initialize
  3155  00E3                     _PIN_MANAGER_Initialize:	
  3156  00E3                     l1221:	
  3157                           ;incstack = 0
  3158                           ; Regs used in _PIN_MANAGER_Initialize: [wreg+status,2]
  3159                           
  3160                           
  3161                           ;mcc_generated_files/pin_manager.c: 60:     LATA = 0x00;
  3162  00E3  0140               	movlb	0	; select bank0
  3163  00E4  0198               	clrf	24	;volatile
  3164                           
  3165                           ;mcc_generated_files/pin_manager.c: 61:     LATB = 0x00;
  3166  00E5  0199               	clrf	25	;volatile
  3167                           
  3168                           ;mcc_generated_files/pin_manager.c: 62:     LATC = 0x00;
  3169  00E6  019A               	clrf	26	;volatile
  3170  00E7                     l1223:	
  3171                           
  3172                           ;mcc_generated_files/pin_manager.c: 67:     TRISA = 0x1D;
  3173  00E7  301D               	movlw	29
  3174  00E8  0092               	movwf	18	;volatile
  3175  00E9                     l1225:	
  3176                           
  3177                           ;mcc_generated_files/pin_manager.c: 68:     TRISB = 0xC1;
  3178  00E9  30C1               	movlw	193
  3179  00EA  0093               	movwf	19	;volatile
  3180  00EB                     l1227:	
  3181                           
  3182                           ;mcc_generated_files/pin_manager.c: 69:     TRISC = 0xB8;
  3183  00EB  30B8               	movlw	184
  3184  00EC  0094               	movwf	20	;volatile
  3185  00ED                     l1229:	
  3186                           
  3187                           ;mcc_generated_files/pin_manager.c: 74:     ANSELC = 0x7F;
  3188  00ED  307F               	movlw	127
  3189  00EE  017E               	movlb	62	; select bank62
  3190  00EF  00CE               	movwf	78	;volatile
  3191  00F0                     l1231:	
  3192                           
  3193                           ;mcc_generated_files/pin_manager.c: 75:     ANSELB = 0xFF;
  3194  00F0  30FF               	movlw	255
  3195  00F1  00C3               	movwf	67	;volatile
  3196  00F2                     l1233:	
  3197                           
  3198                           ;mcc_generated_files/pin_manager.c: 76:     ANSELA = 0xE2;
  3199  00F2  30E2               	movlw	226
  3200  00F3  00B8               	movwf	56	;volatile
  3201                           
  3202                           ;mcc_generated_files/pin_manager.c: 81:     WPUE = 0x00;
  3203  00F4  01E5               	clrf	101	;volatile
  3204                           
  3205                           ;mcc_generated_files/pin_manager.c: 82:     WPUB = 0x00;
  3206  00F5  01C4               	clrf	68	;volatile
  3207  00F6                     l1235:	
  3208                           
  3209                           ;mcc_generated_files/pin_manager.c: 83:     WPUA = 0x01;
  3210  00F6  3001               	movlw	1
  3211  00F7  00B9               	movwf	57	;volatile
  3212  00F8                     l1237:	
  3213                           
  3214                           ;mcc_generated_files/pin_manager.c: 84:     WPUC = 0x00;
  3215  00F8  01CF               	clrf	79	;volatile
  3216  00F9                     l1239:	
  3217                           
  3218                           ;mcc_generated_files/pin_manager.c: 89:     ODCONA = 0x00;
  3219  00F9  01BA               	clrf	58	;volatile
  3220  00FA                     l1241:	
  3221                           
  3222                           ;mcc_generated_files/pin_manager.c: 90:     ODCONB = 0x00;
  3223  00FA  01C5               	clrf	69	;volatile
  3224  00FB                     l1243:	
  3225                           
  3226                           ;mcc_generated_files/pin_manager.c: 91:     ODCONC = 0x00;
  3227  00FB  01D0               	clrf	80	;volatile
  3228  00FC                     l1245:	
  3229                           
  3230                           ;mcc_generated_files/pin_manager.c: 96:     SLRCONA = 0xFF;
  3231  00FC  30FF               	movlw	255
  3232  00FD  00BB               	movwf	59	;volatile
  3233  00FE                     l1247:	
  3234                           
  3235                           ;mcc_generated_files/pin_manager.c: 97:     SLRCONB = 0xFF;
  3236  00FE  30FF               	movlw	255
  3237  00FF  00C6               	movwf	70	;volatile
  3238  0100                     l1249:	
  3239                           
  3240                           ;mcc_generated_files/pin_manager.c: 98:     SLRCONC = 0xFF;
  3241  0100  30FF               	movlw	255
  3242  0101  00D1               	movwf	81	;volatile
  3243  0102                     l1251:	
  3244                           
  3245                           ;mcc_generated_files/pin_manager.c: 103:     INLVLA = 0xFF;
  3246  0102  30FF               	movlw	255
  3247  0103  00BC               	movwf	60	;volatile
  3248  0104                     l1253:	
  3249                           
  3250                           ;mcc_generated_files/pin_manager.c: 104:     INLVLB = 0xFF;
  3251  0104  30FF               	movlw	255
  3252  0105  00C7               	movwf	71	;volatile
  3253  0106                     l1255:	
  3254                           
  3255                           ;mcc_generated_files/pin_manager.c: 105:     INLVLC = 0xFF;
  3256  0106  30FF               	movlw	255
  3257  0107  00D2               	movwf	82	;volatile
  3258  0108                     l1257:	
  3259                           
  3260                           ;mcc_generated_files/pin_manager.c: 106:     INLVLE = 0x08;
  3261  0108  3008               	movlw	8
  3262  0109  00E8               	movwf	104	;volatile
  3263                           
  3264                           ;mcc_generated_files/pin_manager.c: 118:     INTPPS = 0x00;
  3265  010A  017D               	movlb	61	; select bank61
  3266  010B  0190               	clrf	16	;volatile
  3267  010C                     l1259:	
  3268                           
  3269                           ;mcc_generated_files/pin_manager.c: 119:     RC6PPS = 0x0F;
  3270  010C  300F               	movlw	15
  3271  010D  017E               	movlb	62	; select bank62
  3272  010E  00A6               	movwf	38	;volatile
  3273  010F                     l1261:	
  3274                           
  3275                           ;mcc_generated_files/pin_manager.c: 120:     RX1DTPPS = 0x17;
  3276  010F  3017               	movlw	23
  3277  0110  017D               	movlb	61	; select bank61
  3278  0111  00CB               	movwf	75	;volatile
  3279  0112                     l98:	
  3280  0112  0008               	return
  3281  0113                     __end_of_PIN_MANAGER_Initialize:	
  3282                           
  3283                           	psect	text7
  3284  01F2                     __ptext7:	
  3285 ;; *************** function _OSCILLATOR_Initialize *****************
  3286 ;; Defined at:
  3287 ;;		line 59 in file "mcc_generated_files/mcc.c"
  3288 ;; Parameters:    Size  Location     Type
  3289 ;;		None
  3290 ;; Auto vars:     Size  Location     Type
  3291 ;;		None
  3292 ;; Return value:  Size  Location     Type
  3293 ;;                  1    wreg      void 
  3294 ;; Registers used:
  3295 ;;		wreg, status,2
  3296 ;; Tracked objects:
  3297 ;;		On entry : 0/0
  3298 ;;		On exit  : 0/0
  3299 ;;		Unchanged: 0/0
  3300 ;; Data sizes:     COMMON   BANK0   BANK1   BANK2   BANK3   BANK4   BANK5   BANK6   BANK7   BANK8   BANK9  BANK10  BANK1
      +1  BANK12
  3301 ;;      Params:         0       0       0       0       0       0       0       0       0       0       0       0       
      +0       0
  3302 ;;      Locals:         0       0       0       0       0       0       0       0       0       0       0       0       
      +0       0
  3303 ;;      Temps:          0       0       0       0       0       0       0       0       0       0       0       0       
      +0       0
  3304 ;;      Totals:         0       0       0       0       0       0       0       0       0       0       0       0       
      +0       0
  3305 ;;Total ram usage:        0 bytes
  3306 ;; Hardware stack levels used:    1
  3307 ;; Hardware stack levels required when called:    5
  3308 ;; This function calls:
  3309 ;;		Nothing
  3310 ;; This function is called by:
  3311 ;;		_SYSTEM_Initialize
  3312 ;; This function uses a non-reentrant model
  3313 ;;
  3314                           
  3315                           
  3316                           ;psect for function _OSCILLATOR_Initialize
  3317  01F2                     _OSCILLATOR_Initialize:	
  3318  01F2                     l1263:	
  3319                           ;incstack = 0
  3320                           ; Regs used in _OSCILLATOR_Initialize: [wreg+status,2]
  3321                           
  3322                           
  3323                           ;mcc_generated_files/mcc.c: 62:     OSCCON1 = 0x62;
  3324  01F2  3062               	movlw	98
  3325  01F3  0151               	movlb	17	; select bank17
  3326  01F4  008D               	movwf	13	;volatile
  3327  01F5                     l1265:	
  3328                           
  3329                           ;mcc_generated_files/mcc.c: 64:     OSCCON3 = 0x00;
  3330  01F5  018F               	clrf	15	;volatile
  3331  01F6                     l1267:	
  3332                           
  3333                           ;mcc_generated_files/mcc.c: 66:     OSCEN = 0x00;
  3334  01F6  0191               	clrf	17	;volatile
  3335                           
  3336                           ;mcc_generated_files/mcc.c: 68:     OSCFRQ = 0x02;
  3337  01F7  3002               	movlw	2
  3338  01F8  0093               	movwf	19	;volatile
  3339  01F9                     l1269:	
  3340                           
  3341                           ;mcc_generated_files/mcc.c: 70:     OSCSTAT = 0x00;
  3342  01F9  0190               	clrf	16	;volatile
  3343  01FA                     l1271:	
  3344                           
  3345                           ;mcc_generated_files/mcc.c: 72:     OSCTUNE = 0x00;
  3346  01FA  0192               	clrf	18	;volatile
  3347  01FB                     l40:	
  3348  01FB  0008               	return
  3349  01FC                     __end_of_OSCILLATOR_Initialize:	
  3350                           
  3351                           	psect	text8
  3352  01D8                     __ptext8:	
  3353 ;; *************** function _EXT_INT_Initialize *****************
  3354 ;; Defined at:
  3355 ;;		line 68 in file "mcc_generated_files/ext_int.c"
  3356 ;; Parameters:    Size  Location     Type
  3357 ;;		None
  3358 ;; Auto vars:     Size  Location     Type
  3359 ;;		None
  3360 ;; Return value:  Size  Location     Type
  3361 ;;                  1    wreg      void 
  3362 ;; Registers used:
  3363 ;;		wreg, status,2, status,0, pclath, cstack
  3364 ;; Tracked objects:
  3365 ;;		On entry : 0/0
  3366 ;;		On exit  : 0/0
  3367 ;;		Unchanged: 0/0
  3368 ;; Data sizes:     COMMON   BANK0   BANK1   BANK2   BANK3   BANK4   BANK5   BANK6   BANK7   BANK8   BANK9  BANK10  BANK1
      +1  BANK12
  3369 ;;      Params:         0       0       0       0       0       0       0       0       0       0       0       0       
      +0       0
  3370 ;;      Locals:         0       0       0       0       0       0       0       0       0       0       0       0       
      +0       0
  3371 ;;      Temps:          0       0       0       0       0       0       0       0       0       0       0       0       
      +0       0
  3372 ;;      Totals:         0       0       0       0       0       0       0       0       0       0       0       0       
      +0       0
  3373 ;;Total ram usage:        0 bytes
  3374 ;; Hardware stack levels used:    1
  3375 ;; Hardware stack levels required when called:    6
  3376 ;; This function calls:
  3377 ;;		_INT_SetInterruptHandler
  3378 ;; This function is called by:
  3379 ;;		_SYSTEM_Initialize
  3380 ;; This function uses a non-reentrant model
  3381 ;;
  3382                           
  3383                           
  3384                           ;psect for function _EXT_INT_Initialize
  3385  01D8                     _EXT_INT_Initialize:	
  3386  01D8                     l1273:	
  3387                           ;incstack = 0
  3388                           ; Regs used in _EXT_INT_Initialize: [wreg+status,2+status,0+pclath+cstack]
  3389                           
  3390                           
  3391                           ;mcc_generated_files/ext_int.c: 73:     (PIR0bits.INTF = 0);
  3392  01D8  014E               	movlb	14	; select bank14
  3393  01D9  100C               	bcf	12,0	;volatile
  3394                           
  3395                           ;mcc_generated_files/ext_int.c: 74:     (INTCONbits.INTEDG = 1);
  3396  01DA  140B               	bsf	11,0	;volatile
  3397  01DB                     l1275:	
  3398                           
  3399                           ;mcc_generated_files/ext_int.c: 76:     INT_SetInterruptHandler(INT_DefaultInterruptHand
      +                          ler);
  3400  01DB  30CA               	movlw	low _INT_DefaultInterruptHandler
  3401  01DC  00F2               	movwf	INT_SetInterruptHandler@InterruptHandler
  3402  01DD  3001               	movlw	high _INT_DefaultInterruptHandler
  3403  01DE  00F3               	movwf	INT_SetInterruptHandler@InterruptHandler+1
  3404  01DF  3182  2216  3181   	fcall	_INT_SetInterruptHandler
  3405  01E2                     l1277:	
  3406                           
  3407                           ;mcc_generated_files/ext_int.c: 77:     (PIE0bits.INTE = 1);
  3408  01E2  014E               	movlb	14	; select bank14
  3409  01E3  1416               	bsf	22,0	;volatile
  3410  01E4                     l222:	
  3411  01E4  0008               	return
  3412  01E5                     __end_of_EXT_INT_Initialize:	
  3413                           
  3414                           	psect	text9
  3415  0216                     __ptext9:	
  3416 ;; *************** function _INT_SetInterruptHandler *****************
  3417 ;; Defined at:
  3418 ;;		line 52 in file "mcc_generated_files/ext_int.c"
  3419 ;; Parameters:    Size  Location     Type
  3420 ;;  InterruptHan    2    2[COMMON] PTR FTN()void 
  3421 ;;		 -> INT_DefaultInterruptHandler(1), 
  3422 ;; Auto vars:     Size  Location     Type
  3423 ;;		None
  3424 ;; Return value:  Size  Location     Type
  3425 ;;                  1    wreg      void 
  3426 ;; Registers used:
  3427 ;;		wreg
  3428 ;; Tracked objects:
  3429 ;;		On entry : 0/0
  3430 ;;		On exit  : 0/0
  3431 ;;		Unchanged: 0/0
  3432 ;; Data sizes:     COMMON   BANK0   BANK1   BANK2   BANK3   BANK4   BANK5   BANK6   BANK7   BANK8   BANK9  BANK10  BANK1
      +1  BANK12
  3433 ;;      Params:         2       0       0       0       0       0       0       0       0       0       0       0       
      +0       0
  3434 ;;      Locals:         0       0       0       0       0       0       0       0       0       0       0       0       
      +0       0
  3435 ;;      Temps:          0       0       0       0       0       0       0       0       0       0       0       0       
      +0       0
  3436 ;;      Totals:         2       0       0       0       0       0       0       0       0       0       0       0       
      +0       0
  3437 ;;Total ram usage:        2 bytes
  3438 ;; Hardware stack levels used:    1
  3439 ;; Hardware stack levels required when called:    5
  3440 ;; This function calls:
  3441 ;;		Nothing
  3442 ;; This function is called by:
  3443 ;;		_EXT_INT_Initialize
  3444 ;; This function uses a non-reentrant model
  3445 ;;
  3446                           
  3447                           
  3448                           ;psect for function _INT_SetInterruptHandler
  3449  0216                     _INT_SetInterruptHandler:	
  3450  0216                     l1211:	
  3451                           ;incstack = 0
  3452                           ; Regs used in _INT_SetInterruptHandler: [wreg]
  3453                           
  3454                           
  3455                           ;mcc_generated_files/ext_int.c: 53:     INT_InterruptHandler = InterruptHandler;
  3456  0216  0873               	movf	INT_SetInterruptHandler@InterruptHandler+1,w
  3457  0217  0140               	movlb	0	; select bank0
  3458  0218  00A1               	movwf	_INT_InterruptHandler+1
  3459  0219  0872               	movf	INT_SetInterruptHandler@InterruptHandler,w
  3460  021A  00A0               	movwf	_INT_InterruptHandler
  3461  021B                     l215:	
  3462  021B  0008               	return
  3463  021C                     __end_of_INT_SetInterruptHandler:	
  3464                           
  3465                           	psect	text10
  3466  013A                     __ptext10:	
  3467 ;; *************** function _EUSART1_Initialize *****************
  3468 ;; Defined at:
  3469 ;;		line 66 in file "mcc_generated_files/eusart1.c"
  3470 ;; Parameters:    Size  Location     Type
  3471 ;;		None
  3472 ;; Auto vars:     Size  Location     Type
  3473 ;;		None
  3474 ;; Return value:  Size  Location     Type
  3475 ;;                  1    wreg      void 
  3476 ;; Registers used:
  3477 ;;		wreg, status,2, status,0, pclath, cstack
  3478 ;; Tracked objects:
  3479 ;;		On entry : 0/0
  3480 ;;		On exit  : 0/0
  3481 ;;		Unchanged: 0/0
  3482 ;; Data sizes:     COMMON   BANK0   BANK1   BANK2   BANK3   BANK4   BANK5   BANK6   BANK7   BANK8   BANK9  BANK10  BANK1
      +1  BANK12
  3483 ;;      Params:         0       0       0       0       0       0       0       0       0       0       0       0       
      +0       0
  3484 ;;      Locals:         0       0       0       0       0       0       0       0       0       0       0       0       
      +0       0
  3485 ;;      Temps:          0       0       0       0       0       0       0       0       0       0       0       0       
      +0       0
  3486 ;;      Totals:         0       0       0       0       0       0       0       0       0       0       0       0       
      +0       0
  3487 ;;Total ram usage:        0 bytes
  3488 ;; Hardware stack levels used:    1
  3489 ;; Hardware stack levels required when called:    6
  3490 ;; This function calls:
  3491 ;;		_EUSART1_SetErrorHandler
  3492 ;;		_EUSART1_SetFramingErrorHandler
  3493 ;;		_EUSART1_SetOverrunErrorHandler
  3494 ;; This function is called by:
  3495 ;;		_SYSTEM_Initialize
  3496 ;;		_main
  3497 ;; This function uses a non-reentrant model
  3498 ;;
  3499                           
  3500                           
  3501                           ;psect for function _EUSART1_Initialize
  3502  013A                     _EUSART1_Initialize:	
  3503  013A                     l1279:	
  3504                           ;incstack = 0
  3505                           ; Regs used in _EUSART1_Initialize: [wreg+status,2+status,0+pclath+cstack]
  3506                           
  3507                           
  3508                           ;mcc_generated_files/eusart1.c: 71:     BAUD1CON = 0x08;
  3509  013A  3008               	movlw	8
  3510  013B  0142               	movlb	2	; select bank2
  3511  013C  009F               	movwf	31	;volatile
  3512                           
  3513                           ;mcc_generated_files/eusart1.c: 74:     RC1STA = 0x90;
  3514  013D  3090               	movlw	144
  3515  013E  009D               	movwf	29	;volatile
  3516                           
  3517                           ;mcc_generated_files/eusart1.c: 77:     TX1STA = 0x24;
  3518  013F  3024               	movlw	36
  3519  0140  009E               	movwf	30	;volatile
  3520                           
  3521                           ;mcc_generated_files/eusart1.c: 80:     SP1BRGL = 0x19;
  3522  0141  3019               	movlw	25
  3523  0142  009B               	movwf	27	;volatile
  3524  0143                     l1281:	
  3525                           
  3526                           ;mcc_generated_files/eusart1.c: 83:     SP1BRGH = 0x00;
  3527  0143  019C               	clrf	28	;volatile
  3528  0144                     l1283:	
  3529                           
  3530                           ;mcc_generated_files/eusart1.c: 86:     EUSART1_SetFramingErrorHandler(EUSART1_DefaultFr
      +                          amingErrorHandler);
  3531  0144  3000               	movlw	0
  3532  0145  00F2               	movwf	EUSART1_SetFramingErrorHandler@interruptHandler
  3533  0146  3000               	movlw	0
  3534  0147  00F3               	movwf	EUSART1_SetFramingErrorHandler@interruptHandler+1
  3535  0148  3182  2222  3181   	fcall	_EUSART1_SetFramingErrorHandler
  3536  014B                     l1285:	
  3537                           
  3538                           ;mcc_generated_files/eusart1.c: 87:     EUSART1_SetOverrunErrorHandler(EUSART1_DefaultOv
      +                          errunErrorHandler);
  3539  014B  3000               	movlw	0
  3540  014C  00F2               	movwf	EUSART1_SetOverrunErrorHandler@interruptHandler
  3541  014D  3000               	movlw	0
  3542  014E  00F3               	movwf	EUSART1_SetOverrunErrorHandler@interruptHandler+1
  3543  014F  3182  221C  3181   	fcall	_EUSART1_SetOverrunErrorHandler
  3544  0152                     l1287:	
  3545                           
  3546                           ;mcc_generated_files/eusart1.c: 88:     EUSART1_SetErrorHandler(EUSART1_DefaultErrorHand
      +                          ler);
  3547  0152  3000               	movlw	0
  3548  0153  00F2               	movwf	EUSART1_SetErrorHandler@interruptHandler
  3549  0154  3000               	movlw	0
  3550  0155  00F3               	movwf	EUSART1_SetErrorHandler@interruptHandler+1
  3551  0156  3182  2228  3181   	fcall	_EUSART1_SetErrorHandler
  3552  0159                     l1289:	
  3553                           
  3554                           ;mcc_generated_files/eusart1.c: 90:     eusart1RxLastError.status = 0;
  3555  0159  01FB               	clrf	_eusart1RxLastError	;volatile
  3556  015A                     l144:	
  3557  015A  0008               	return
  3558  015B                     __end_of_EUSART1_Initialize:	
  3559                           
  3560                           	psect	text11
  3561  021C                     __ptext11:	
  3562 ;; *************** function _EUSART1_SetOverrunErrorHandler *****************
  3563 ;; Defined at:
  3564 ;;		line 161 in file "mcc_generated_files/eusart1.c"
  3565 ;; Parameters:    Size  Location     Type
  3566 ;;  interruptHan    2    2[COMMON] PTR FTN()void 
  3567 ;;		 -> EUSART1_DefaultOverrunErrorHandler(1), 
  3568 ;; Auto vars:     Size  Location     Type
  3569 ;;		None
  3570 ;; Return value:  Size  Location     Type
  3571 ;;                  1    wreg      void 
  3572 ;; Registers used:
  3573 ;;		wreg
  3574 ;; Tracked objects:
  3575 ;;		On entry : 0/0
  3576 ;;		On exit  : 0/0
  3577 ;;		Unchanged: 0/0
  3578 ;; Data sizes:     COMMON   BANK0   BANK1   BANK2   BANK3   BANK4   BANK5   BANK6   BANK7   BANK8   BANK9  BANK10  BANK1
      +1  BANK12
  3579 ;;      Params:         2       0       0       0       0       0       0       0       0       0       0       0       
      +0       0
  3580 ;;      Locals:         0       0       0       0       0       0       0       0       0       0       0       0       
      +0       0
  3581 ;;      Temps:          0       0       0       0       0       0       0       0       0       0       0       0       
      +0       0
  3582 ;;      Totals:         2       0       0       0       0       0       0       0       0       0       0       0       
      +0       0
  3583 ;;Total ram usage:        2 bytes
  3584 ;; Hardware stack levels used:    1
  3585 ;; Hardware stack levels required when called:    5
  3586 ;; This function calls:
  3587 ;;		Nothing
  3588 ;; This function is called by:
  3589 ;;		_EUSART1_Initialize
  3590 ;; This function uses a non-reentrant model
  3591 ;;
  3592                           
  3593                           
  3594                           ;psect for function _EUSART1_SetOverrunErrorHandler
  3595  021C                     _EUSART1_SetOverrunErrorHandler:	
  3596  021C                     l1207:	
  3597                           ;incstack = 0
  3598                           ; Regs used in _EUSART1_SetOverrunErrorHandler: [wreg]
  3599                           
  3600                           
  3601                           ;mcc_generated_files/eusart1.c: 162:     EUSART1_OverrunErrorHandler = interruptHandler;
  3602  021C  0873               	movf	EUSART1_SetOverrunErrorHandler@interruptHandler+1,w
  3603  021D  0140               	movlb	0	; select bank0
  3604  021E  00A5               	movwf	_EUSART1_OverrunErrorHandler+1
  3605  021F  0872               	movf	EUSART1_SetOverrunErrorHandler@interruptHandler,w
  3606  0220  00A4               	movwf	_EUSART1_OverrunErrorHandler
  3607  0221                     l186:	
  3608  0221  0008               	return
  3609  0222                     __end_of_EUSART1_SetOverrunErrorHandler:	
  3610                           
  3611                           	psect	text12
  3612  0222                     __ptext12:	
  3613 ;; *************** function _EUSART1_SetFramingErrorHandler *****************
  3614 ;; Defined at:
  3615 ;;		line 157 in file "mcc_generated_files/eusart1.c"
  3616 ;; Parameters:    Size  Location     Type
  3617 ;;  interruptHan    2    2[COMMON] PTR FTN()void 
  3618 ;;		 -> EUSART1_DefaultFramingErrorHandler(1), 
  3619 ;; Auto vars:     Size  Location     Type
  3620 ;;		None
  3621 ;; Return value:  Size  Location     Type
  3622 ;;                  1    wreg      void 
  3623 ;; Registers used:
  3624 ;;		wreg
  3625 ;; Tracked objects:
  3626 ;;		On entry : 0/0
  3627 ;;		On exit  : 0/0
  3628 ;;		Unchanged: 0/0
  3629 ;; Data sizes:     COMMON   BANK0   BANK1   BANK2   BANK3   BANK4   BANK5   BANK6   BANK7   BANK8   BANK9  BANK10  BANK1
      +1  BANK12
  3630 ;;      Params:         2       0       0       0       0       0       0       0       0       0       0       0       
      +0       0
  3631 ;;      Locals:         0       0       0       0       0       0       0       0       0       0       0       0       
      +0       0
  3632 ;;      Temps:          0       0       0       0       0       0       0       0       0       0       0       0       
      +0       0
  3633 ;;      Totals:         2       0       0       0       0       0       0       0       0       0       0       0       
      +0       0
  3634 ;;Total ram usage:        2 bytes
  3635 ;; Hardware stack levels used:    1
  3636 ;; Hardware stack levels required when called:    5
  3637 ;; This function calls:
  3638 ;;		Nothing
  3639 ;; This function is called by:
  3640 ;;		_EUSART1_Initialize
  3641 ;; This function uses a non-reentrant model
  3642 ;;
  3643                           
  3644                           
  3645                           ;psect for function _EUSART1_SetFramingErrorHandler
  3646  0222                     _EUSART1_SetFramingErrorHandler:	
  3647  0222                     l1205:	
  3648                           ;incstack = 0
  3649                           ; Regs used in _EUSART1_SetFramingErrorHandler: [wreg]
  3650                           
  3651                           
  3652                           ;mcc_generated_files/eusart1.c: 158:     EUSART1_FramingErrorHandler = interruptHandler;
  3653  0222  0873               	movf	EUSART1_SetFramingErrorHandler@interruptHandler+1,w
  3654  0223  0140               	movlb	0	; select bank0
  3655  0224  00A7               	movwf	_EUSART1_FramingErrorHandler+1
  3656  0225  0872               	movf	EUSART1_SetFramingErrorHandler@interruptHandler,w
  3657  0226  00A6               	movwf	_EUSART1_FramingErrorHandler
  3658  0227                     l183:	
  3659  0227  0008               	return
  3660  0228                     __end_of_EUSART1_SetFramingErrorHandler:	
  3661                           
  3662                           	psect	text13
  3663  0228                     __ptext13:	
  3664 ;; *************** function _EUSART1_SetErrorHandler *****************
  3665 ;; Defined at:
  3666 ;;		line 165 in file "mcc_generated_files/eusart1.c"
  3667 ;; Parameters:    Size  Location     Type
  3668 ;;  interruptHan    2    2[COMMON] PTR FTN()void 
  3669 ;;		 -> EUSART1_DefaultErrorHandler(1), 
  3670 ;; Auto vars:     Size  Location     Type
  3671 ;;		None
  3672 ;; Return value:  Size  Location     Type
  3673 ;;                  1    wreg      void 
  3674 ;; Registers used:
  3675 ;;		wreg
  3676 ;; Tracked objects:
  3677 ;;		On entry : 0/0
  3678 ;;		On exit  : 0/0
  3679 ;;		Unchanged: 0/0
  3680 ;; Data sizes:     COMMON   BANK0   BANK1   BANK2   BANK3   BANK4   BANK5   BANK6   BANK7   BANK8   BANK9  BANK10  BANK1
      +1  BANK12
  3681 ;;      Params:         2       0       0       0       0       0       0       0       0       0       0       0       
      +0       0
  3682 ;;      Locals:         0       0       0       0       0       0       0       0       0       0       0       0       
      +0       0
  3683 ;;      Temps:          0       0       0       0       0       0       0       0       0       0       0       0       
      +0       0
  3684 ;;      Totals:         2       0       0       0       0       0       0       0       0       0       0       0       
      +0       0
  3685 ;;Total ram usage:        2 bytes
  3686 ;; Hardware stack levels used:    1
  3687 ;; Hardware stack levels required when called:    5
  3688 ;; This function calls:
  3689 ;;		Nothing
  3690 ;; This function is called by:
  3691 ;;		_EUSART1_Initialize
  3692 ;; This function uses a non-reentrant model
  3693 ;;
  3694                           
  3695                           
  3696                           ;psect for function _EUSART1_SetErrorHandler
  3697  0228                     _EUSART1_SetErrorHandler:	
  3698  0228                     l1209:	
  3699                           ;incstack = 0
  3700                           ; Regs used in _EUSART1_SetErrorHandler: [wreg]
  3701                           
  3702                           
  3703                           ;mcc_generated_files/eusart1.c: 166:     EUSART1_ErrorHandler = interruptHandler;
  3704  0228  0873               	movf	EUSART1_SetErrorHandler@interruptHandler+1,w
  3705  0229  0140               	movlb	0	; select bank0
  3706  022A  00A3               	movwf	_EUSART1_ErrorHandler+1
  3707  022B  0872               	movf	EUSART1_SetErrorHandler@interruptHandler,w
  3708  022C  00A2               	movwf	_EUSART1_ErrorHandler
  3709  022D                     l189:	
  3710  022D  0008               	return
  3711  022E                     __end_of_EUSART1_SetErrorHandler:	
  3712                           
  3713                           	psect	text14
  3714  015B                     __ptext14:	
  3715 ;; *************** function _Home *****************
  3716 ;; Defined at:
  3717 ;;		line 184 in file "main.c"
  3718 ;; Parameters:    Size  Location     Type
  3719 ;;  a               1    wreg     unsigned char 
  3720 ;; Auto vars:     Size  Location     Type
  3721 ;;  a               1    3[COMMON] unsigned char 
  3722 ;; Return value:  Size  Location     Type
  3723 ;;                  1    wreg      unsigned char 
  3724 ;; Registers used:
  3725 ;;		wreg, status,2, status,0, pclath, cstack
  3726 ;; Tracked objects:
  3727 ;;		On entry : 0/0
  3728 ;;		On exit  : 0/0
  3729 ;;		Unchanged: 0/0
  3730 ;; Data sizes:     COMMON   BANK0   BANK1   BANK2   BANK3   BANK4   BANK5   BANK6   BANK7   BANK8   BANK9  BANK10  BANK1
      +1  BANK12
  3731 ;;      Params:         0       0       0       0       0       0       0       0       0       0       0       0       
      +0       0
  3732 ;;      Locals:         1       0       0       0       0       0       0       0       0       0       0       0       
      +0       0
  3733 ;;      Temps:          0       0       0       0       0       0       0       0       0       0       0       0       
      +0       0
  3734 ;;      Totals:         1       0       0       0       0       0       0       0       0       0       0       0       
      +0       0
  3735 ;;Total ram usage:        1 bytes
  3736 ;; Hardware stack levels used:    1
  3737 ;; Hardware stack levels required when called:    6
  3738 ;; This function calls:
  3739 ;;		_led
  3740 ;;		_motorA_Back
  3741 ;;		_motorB_Back
  3742 ;; This function is called by:
  3743 ;;		_main
  3744 ;; This function uses a non-reentrant model
  3745 ;;
  3746                           
  3747                           
  3748                           ;psect for function _Home
  3749  015B                     _Home:	
  3750                           
  3751                           ;incstack = 0
  3752                           ; Regs used in _Home: [wreg+status,2+status,0+pclath+cstack]
  3753                           ;Home@a stored from wreg
  3754  015B  00F3               	movwf	Home@a
  3755  015C                     l1359:	
  3756                           
  3757                           ;main.c: 186:     led(a);
  3758  015C  0873               	movf	Home@a,w
  3759  015D  3181  218A  3181   	fcall	_led
  3760                           
  3761                           ;main.c: 188:     while(PORTAbits.RA4 != 0){
  3762  0160  2964               	goto	l1363
  3763  0161                     l1361:	
  3764                           
  3765                           ;main.c: 190:         motorA_Back();
  3766  0161  3181  21BC  3181   	fcall	_motorA_Back
  3767  0164                     l1363:	
  3768                           
  3769                           ;main.c: 188:     while(PORTAbits.RA4 != 0){
  3770  0164  0140               	movlb	0	; select bank0
  3771  0165  1A0C               	btfsc	12,4	;volatile
  3772  0166  2968               	goto	u381
  3773  0167  2969               	goto	u380
  3774  0168                     u381:	
  3775  0168  2961               	goto	l1361
  3776  0169                     u380:	
  3777  0169  296D               	goto	l1367
  3778  016A                     l1365:	
  3779                           
  3780                           ;main.c: 196:         motorB_Back();
  3781  016A  3181  2174  3181   	fcall	_motorB_Back
  3782  016D                     l1367:	
  3783                           
  3784                           ;main.c: 194:     while(PORTAbits.RA3 != 0){
  3785  016D  0140               	movlb	0	; select bank0
  3786  016E  198C               	btfsc	12,3	;volatile
  3787  016F  2971               	goto	u391
  3788  0170  2972               	goto	u390
  3789  0171                     u391:	
  3790  0171  296A               	goto	l1365
  3791  0172                     u390:	
  3792  0172                     l390:	
  3793                           ;main.c: 199:     do { LATAbits.LATA1 = 0; } while(0);
  3794                           
  3795  0172  1098               	bcf	24,1	;volatile
  3796  0173                     l392:	
  3797  0173  0008               	return
  3798  0174                     __end_of_Home:	
  3799                           
  3800                           	psect	text15
  3801  0174                     __ptext15:	
  3802 ;; *************** function _motorB_Back *****************
  3803 ;; Defined at:
  3804 ;;		line 164 in file "main.c"
  3805 ;; Parameters:    Size  Location     Type
  3806 ;;		None
  3807 ;; Auto vars:     Size  Location     Type
  3808 ;;		None
  3809 ;; Return value:  Size  Location     Type
  3810 ;;                  1    wreg      void 
  3811 ;; Registers used:
  3812 ;;		wreg
  3813 ;; Tracked objects:
  3814 ;;		On entry : 0/0
  3815 ;;		On exit  : 0/0
  3816 ;;		Unchanged: 0/0
  3817 ;; Data sizes:     COMMON   BANK0   BANK1   BANK2   BANK3   BANK4   BANK5   BANK6   BANK7   BANK8   BANK9  BANK10  BANK1
      +1  BANK12
  3818 ;;      Params:         0       0       0       0       0       0       0       0       0       0       0       0       
      +0       0
  3819 ;;      Locals:         0       0       0       0       0       0       0       0       0       0       0       0       
      +0       0
  3820 ;;      Temps:          1       0       0       0       0       0       0       0       0       0       0       0       
      +0       0
  3821 ;;      Totals:         1       0       0       0       0       0       0       0       0       0       0       0       
      +0       0
  3822 ;;Total ram usage:        1 bytes
  3823 ;; Hardware stack levels used:    1
  3824 ;; Hardware stack levels required when called:    5
  3825 ;; This function calls:
  3826 ;;		Nothing
  3827 ;; This function is called by:
  3828 ;;		_Home
  3829 ;; This function uses a non-reentrant model
  3830 ;;
  3831                           
  3832                           
  3833                           ;psect for function _motorB_Back
  3834  0174                     _motorB_Back:	
  3835  0174                     l365:	
  3836                           ;incstack = 0
  3837                           ; Regs used in _motorB_Back: [wreg]
  3838                           ;main.c: 166:     do { LATBbits.LATB4 = 0; } while(0);
  3839                           
  3840  0174  0140               	movlb	0	; select bank0
  3841  0175  1219               	bcf	25,4	;volatile
  3842  0176                     l367:	
  3843                           ;main.c: 168:     do { LATBbits.LATB5 = 1; } while(0);
  3844                           
  3845  0176  1699               	bsf	25,5	;volatile
  3846  0177                     l1307:	
  3847                           
  3848                           ;main.c: 169:     _delay((unsigned long)((20)*(1000000/4000.0)));
  3849  0177  3007               	movlw	7
  3850  0178  00F2               	movwf	??_motorB_Back
  3851  0179  307D               	movlw	125
  3852  017A                     u587:	
  3853  017A  0B89               	decfsz	9,f
  3854  017B  297A               	goto	u587
  3855  017C  0BF2               	decfsz	??_motorB_Back,f
  3856  017D  297A               	goto	u587
  3857  017E  0000               	nop
  3858  017F                     l1309:	
  3859  017F  0140               	movlb	0	; select bank0
  3860  0180  1299               	bcf	25,5	;volatile
  3861  0181                     l370:	
  3862                           
  3863                           ;main.c: 172:     _delay((unsigned long)((20)*(1000000/4000.0)));
  3864  0181  3007               	movlw	7
  3865  0182  00F2               	movwf	??_motorB_Back
  3866  0183  307D               	movlw	125
  3867  0184                     u597:	
  3868  0184  0B89               	decfsz	9,f
  3869  0185  2984               	goto	u597
  3870  0186  0BF2               	decfsz	??_motorB_Back,f
  3871  0187  2984               	goto	u597
  3872  0188  0000               	nop
  3873  0189                     l371:	
  3874  0189  0008               	return
  3875  018A                     __end_of_motorB_Back:	
  3876                           
  3877                           	psect	text16
  3878  01BC                     __ptext16:	
  3879 ;; *************** function _motorA_Back *****************
  3880 ;; Defined at:
  3881 ;;		line 151 in file "main.c"
  3882 ;; Parameters:    Size  Location     Type
  3883 ;;		None
  3884 ;; Auto vars:     Size  Location     Type
  3885 ;;		None
  3886 ;; Return value:  Size  Location     Type
  3887 ;;                  1    wreg      void 
  3888 ;; Registers used:
  3889 ;;		wreg
  3890 ;; Tracked objects:
  3891 ;;		On entry : 0/0
  3892 ;;		On exit  : 0/0
  3893 ;;		Unchanged: 0/0
  3894 ;; Data sizes:     COMMON   BANK0   BANK1   BANK2   BANK3   BANK4   BANK5   BANK6   BANK7   BANK8   BANK9  BANK10  BANK1
      +1  BANK12
  3895 ;;      Params:         0       0       0       0       0       0       0       0       0       0       0       0       
      +0       0
  3896 ;;      Locals:         0       0       0       0       0       0       0       0       0       0       0       0       
      +0       0
  3897 ;;      Temps:          0       0       0       0       0       0       0       0       0       0       0       0       
      +0       0
  3898 ;;      Totals:         0       0       0       0       0       0       0       0       0       0       0       0       
      +0       0
  3899 ;;Total ram usage:        0 bytes
  3900 ;; Hardware stack levels used:    1
  3901 ;; Hardware stack levels required when called:    5
  3902 ;; This function calls:
  3903 ;;		Nothing
  3904 ;; This function is called by:
  3905 ;;		_Home
  3906 ;; This function uses a non-reentrant model
  3907 ;;
  3908                           
  3909                           
  3910                           ;psect for function _motorA_Back
  3911  01BC                     _motorA_Back:	
  3912  01BC                     l356:	
  3913                           ;incstack = 0
  3914                           ; Regs used in _motorA_Back: [wreg]
  3915                           ;main.c: 153:     do { LATCbits.LATC1 = 0; } while(0);
  3916                           
  3917  01BC  0140               	movlb	0	; select bank0
  3918  01BD  109A               	bcf	26,1	;volatile
  3919  01BE                     l358:	
  3920                           ;main.c: 155:     do { LATCbits.LATC2 = 1; } while(0);
  3921                           
  3922  01BE  151A               	bsf	26,2	;volatile
  3923  01BF                     l1303:	
  3924                           
  3925                           ;main.c: 156:     _delay((unsigned long)((5)*(1000000/4000.0)));
  3926  01BF  30FA               	movlw	250
  3927  01C0                     u607:	
  3928  01C0  3200               	nop2
  3929  01C1  0B89               	decfsz	9,f
  3930  01C2  29C0               	goto	u607
  3931  01C3                     l1305:	
  3932  01C3  0140               	movlb	0	; select bank0
  3933  01C4  111A               	bcf	26,2	;volatile
  3934  01C5                     l361:	
  3935                           
  3936                           ;main.c: 159:     _delay((unsigned long)((5)*(1000000/4000.0)));
  3937  01C5  30FA               	movlw	250
  3938  01C6                     u617:	
  3939  01C6  3200               	nop2
  3940  01C7  0B89               	decfsz	9,f
  3941  01C8  29C6               	goto	u617
  3942  01C9                     l362:	
  3943  01C9  0008               	return
  3944  01CA                     __end_of_motorA_Back:	
  3945                           
  3946                           	psect	text17
  3947  018A                     __ptext17:	
  3948 ;; *************** function _led *****************
  3949 ;; Defined at:
  3950 ;;		line 175 in file "main.c"
  3951 ;; Parameters:    Size  Location     Type
  3952 ;;  a               1    wreg     unsigned char 
  3953 ;; Auto vars:     Size  Location     Type
  3954 ;;  a               1    2[COMMON] unsigned char 
  3955 ;; Return value:  Size  Location     Type
  3956 ;;                  1    wreg      void 
  3957 ;; Registers used:
  3958 ;;		wreg, status,2, status,0
  3959 ;; Tracked objects:
  3960 ;;		On entry : 0/0
  3961 ;;		On exit  : 0/0
  3962 ;;		Unchanged: 0/0
  3963 ;; Data sizes:     COMMON   BANK0   BANK1   BANK2   BANK3   BANK4   BANK5   BANK6   BANK7   BANK8   BANK9  BANK10  BANK1
      +1  BANK12
  3964 ;;      Params:         0       0       0       0       0       0       0       0       0       0       0       0       
      +0       0
  3965 ;;      Locals:         1       0       0       0       0       0       0       0       0       0       0       0       
      +0       0
  3966 ;;      Temps:          0       0       0       0       0       0       0       0       0       0       0       0       
      +0       0
  3967 ;;      Totals:         1       0       0       0       0       0       0       0       0       0       0       0       
      +0       0
  3968 ;;Total ram usage:        1 bytes
  3969 ;; Hardware stack levels used:    1
  3970 ;; Hardware stack levels required when called:    5
  3971 ;; This function calls:
  3972 ;;		Nothing
  3973 ;; This function is called by:
  3974 ;;		_Home
  3975 ;; This function uses a non-reentrant model
  3976 ;;
  3977                           
  3978                           
  3979                           ;psect for function _led
  3980  018A                     _led:	
  3981                           
  3982                           ;incstack = 0
  3983                           ; Regs used in _led: [wreg+status,2+status,0]
  3984                           ;led@a stored from wreg
  3985  018A  00F2               	movwf	led@a
  3986  018B                     l1311:	
  3987                           
  3988                           ;main.c: 176:     if(a == 'o'){
  3989  018B  306F               	movlw	111
  3990  018C  0672               	xorwf	led@a,w
  3991  018D  1D03               	btfss	3,2
  3992  018E  2990               	goto	u321
  3993  018F  2991               	goto	u320
  3994  0190                     u321:	
  3995  0190  2994               	goto	l1313
  3996  0191                     u320:	
  3997  0191                     l375:	
  3998                           ;main.c: 177:         do { LATAbits.LATA1 = 1; } while(0);
  3999                           
  4000  0191  0140               	movlb	0	; select bank0
  4001  0192  1498               	bsf	24,1	;volatile
  4002  0193  299C               	goto	l381
  4003  0194                     l1313:	
  4004  0194  3066               	movlw	102
  4005  0195  0672               	xorwf	led@a,w
  4006  0196  1D03               	btfss	3,2
  4007  0197  2999               	goto	u331
  4008  0198  299A               	goto	u330
  4009  0199                     u331:	
  4010  0199  299C               	goto	l381
  4011  019A                     u330:	
  4012  019A                     l379:	
  4013                           ;main.c: 180:         do { LATAbits.LATA1 = 0; } while(0);
  4014                           
  4015  019A  0140               	movlb	0	; select bank0
  4016  019B  1098               	bcf	24,1	;volatile
  4017  019C                     l381:	
  4018  019C  0008               	return
  4019  019D                     __end_of_led:	
  4020                           
  4021                           	psect	text18
  4022  01AD                     __ptext18:	
  4023 ;; *************** function _EUSART1_Read *****************
  4024 ;; Defined at:
  4025 ;;		line 113 in file "mcc_generated_files/eusart1.c"
  4026 ;; Parameters:    Size  Location     Type
  4027 ;;		None
  4028 ;; Auto vars:     Size  Location     Type
  4029 ;;		None
  4030 ;; Return value:  Size  Location     Type
  4031 ;;                  1    wreg      unsigned char 
  4032 ;; Registers used:
  4033 ;;		wreg, status,2
  4034 ;; Tracked objects:
  4035 ;;		On entry : 0/0
  4036 ;;		On exit  : 0/0
  4037 ;;		Unchanged: 0/0
  4038 ;; Data sizes:     COMMON   BANK0   BANK1   BANK2   BANK3   BANK4   BANK5   BANK6   BANK7   BANK8   BANK9  BANK10  BANK1
      +1  BANK12
  4039 ;;      Params:         0       0       0       0       0       0       0       0       0       0       0       0       
      +0       0
  4040 ;;      Locals:         0       0       0       0       0       0       0       0       0       0       0       0       
      +0       0
  4041 ;;      Temps:          0       0       0       0       0       0       0       0       0       0       0       0       
      +0       0
  4042 ;;      Totals:         0       0       0       0       0       0       0       0       0       0       0       0       
      +0       0
  4043 ;;Total ram usage:        0 bytes
  4044 ;; Hardware stack levels used:    1
  4045 ;; Hardware stack levels required when called:    5
  4046 ;; This function calls:
  4047 ;;		Nothing
  4048 ;; This function is called by:
  4049 ;;		_main
  4050 ;;		_UART
  4051 ;; This function uses a non-reentrant model
  4052 ;;
  4053                           
  4054                           
  4055                           ;psect for function _EUSART1_Read
  4056  01AD                     _EUSART1_Read:	
  4057  01AD                     l1329:	
  4058                           ;incstack = 0
  4059                           ; Regs used in _EUSART1_Read: [wreg+status,2]
  4060                           
  4061  01AD                     l161:	
  4062                           ;mcc_generated_files/eusart1.c: 116:     {;mcc_generated_files/eusart1.c: 117:     }
  4063                           
  4064                           
  4065                           ;mcc_generated_files/eusart1.c: 115:     while(!PIR3bits.RC1IF)
  4066  01AD  014E               	movlb	14	; select bank14
  4067  01AE  1E8F               	btfss	15,5	;volatile
  4068  01AF  29B1               	goto	u341
  4069  01B0  29B2               	goto	u340
  4070  01B1                     u341:	
  4071  01B1  29AD               	goto	l161
  4072  01B2                     u340:	
  4073  01B2                     l1331:	
  4074                           
  4075                           ;mcc_generated_files/eusart1.c: 119:     eusart1RxLastError.status = 0;
  4076  01B2  01FB               	clrf	_eusart1RxLastError	;volatile
  4077  01B3                     l1333:	
  4078                           
  4079                           ;mcc_generated_files/eusart1.c: 121:     if(1 == RC1STAbits.OERR)
  4080  01B3  0142               	movlb	2	; select bank2
  4081  01B4  1C9D               	btfss	29,1	;volatile
  4082  01B5  29B7               	goto	u351
  4083  01B6  29B8               	goto	u350
  4084  01B7                     u351:	
  4085  01B7  29BA               	goto	l1337
  4086  01B8                     u350:	
  4087  01B8                     l1335:	
  4088                           
  4089                           ;mcc_generated_files/eusart1.c: 122:     {;mcc_generated_files/eusart1.c: 125:         R
      +                          C1STAbits.CREN = 0;
  4090  01B8  121D               	bcf	29,4	;volatile
  4091                           
  4092                           ;mcc_generated_files/eusart1.c: 126:         RC1STAbits.CREN = 1;
  4093  01B9  161D               	bsf	29,4	;volatile
  4094  01BA                     l1337:	
  4095                           
  4096                           ;mcc_generated_files/eusart1.c: 129:     return RC1REG;
  4097  01BA  0819               	movf	25,w	;volatile
  4098  01BB                     l165:	
  4099  01BB  0008               	return
  4100  01BC                     __end_of_EUSART1_Read:	
  4101                           
  4102                           	psect	intentry
  4103  0004                     __pintentry:	
  4104 ;; *************** function _INTERRUPT_InterruptManager *****************
  4105 ;; Defined at:
  4106 ;;		line 52 in file "mcc_generated_files/interrupt_manager.c"
  4107 ;; Parameters:    Size  Location     Type
  4108 ;;		None
  4109 ;; Auto vars:     Size  Location     Type
  4110 ;;		None
  4111 ;; Return value:  Size  Location     Type
  4112 ;;                  1    wreg      void 
  4113 ;; Registers used:
  4114 ;;		wreg, status,2, status,0, pclath, cstack
  4115 ;; Tracked objects:
  4116 ;;		On entry : 0/0
  4117 ;;		On exit  : 0/0
  4118 ;;		Unchanged: 0/0
  4119 ;; Data sizes:     COMMON   BANK0   BANK1   BANK2   BANK3   BANK4   BANK5   BANK6   BANK7   BANK8   BANK9  BANK10  BANK1
      +1  BANK12
  4120 ;;      Params:         0       0       0       0       0       0       0       0       0       0       0       0       
      +0       0
  4121 ;;      Locals:         0       0       0       0       0       0       0       0       0       0       0       0       
      +0       0
  4122 ;;      Temps:          0       0       0       0       0       0       0       0       0       0       0       0       
      +0       0
  4123 ;;      Totals:         0       0       0       0       0       0       0       0       0       0       0       0       
      +0       0
  4124 ;;Total ram usage:        0 bytes
  4125 ;; Hardware stack levels used:    1
  4126 ;; Hardware stack levels required when called:    4
  4127 ;; This function calls:
  4128 ;;		_INT_ISR
  4129 ;; This function is called by:
  4130 ;;		Interrupt level 1
  4131 ;; This function uses a non-reentrant model
  4132 ;;
  4133                           
  4134  0004                     _INTERRUPT_InterruptManager:	
  4135                           
  4136                           ;incstack = 0
  4137  0004  147E               	bsf	int$flags,0	;set compiler interrupt flag (level 1)
  4138                           
  4139                           ; Regs used in _INTERRUPT_InterruptManager: [wreg+status,2+status,0+pclath+cstack]
  4140  0005  3180               	pagesel	$
  4141  0006                     i1l1369:	
  4142                           
  4143                           ;mcc_generated_files/interrupt_manager.c: 55:     if(PIE0bits.INTE == 1 && PIR0bits.INTF
      +                           == 1)
  4144  0006  014E               	movlb	14	; select bank14
  4145  0007  1C16               	btfss	22,0	;volatile
  4146  0008  280A               	goto	u40_21
  4147  0009  280B               	goto	u40_20
  4148  000A                     u40_21:	
  4149  000A  2812               	goto	i1l235
  4150  000B                     u40_20:	
  4151  000B                     i1l1371:	
  4152  000B  1C0C               	btfss	12,0	;volatile
  4153  000C  280E               	goto	u41_21
  4154  000D  280F               	goto	u41_20
  4155  000E                     u41_21:	
  4156  000E  2812               	goto	i1l235
  4157  000F                     u41_20:	
  4158  000F                     i1l1373:	
  4159                           
  4160                           ;mcc_generated_files/interrupt_manager.c: 56:     {;mcc_generated_files/interrupt_manage
      +                          r.c: 57:         INT_ISR();
  4161  000F  3182  222E  3180   	fcall	_INT_ISR
  4162  0012                     i1l235:	
  4163                           ;mcc_generated_files/interrupt_manager.c: 58:     }
  4164                           
  4165  0012  107E               	bcf	int$flags,0	;clear compiler interrupt flag (level 1)
  4166  0013  0009               	retfie
  4167  0014                     __end_of_INTERRUPT_InterruptManager:	
  4168                           
  4169                           	psect	text20
  4170  022E                     __ptext20:	
  4171 ;; *************** function _INT_ISR *****************
  4172 ;; Defined at:
  4173 ;;		line 34 in file "mcc_generated_files/ext_int.c"
  4174 ;; Parameters:    Size  Location     Type
  4175 ;;		None
  4176 ;; Auto vars:     Size  Location     Type
  4177 ;;		None
  4178 ;; Return value:  Size  Location     Type
  4179 ;;                  1    wreg      void 
  4180 ;; Registers used:
  4181 ;;		wreg, status,2, status,0, pclath, cstack
  4182 ;; Tracked objects:
  4183 ;;		On entry : 0/0
  4184 ;;		On exit  : 0/0
  4185 ;;		Unchanged: 0/0
  4186 ;; Data sizes:     COMMON   BANK0   BANK1   BANK2   BANK3   BANK4   BANK5   BANK6   BANK7   BANK8   BANK9  BANK10  BANK1
      +1  BANK12
  4187 ;;      Params:         0       0       0       0       0       0       0       0       0       0       0       0       
      +0       0
  4188 ;;      Locals:         0       0       0       0       0       0       0       0       0       0       0       0       
      +0       0
  4189 ;;      Temps:          0       0       0       0       0       0       0       0       0       0       0       0       
      +0       0
  4190 ;;      Totals:         0       0       0       0       0       0       0       0       0       0       0       0       
      +0       0
  4191 ;;Total ram usage:        0 bytes
  4192 ;; Hardware stack levels used:    1
  4193 ;; Hardware stack levels required when called:    3
  4194 ;; This function calls:
  4195 ;;		_INT_CallBack
  4196 ;; This function is called by:
  4197 ;;		_INTERRUPT_InterruptManager
  4198 ;; This function uses a non-reentrant model
  4199 ;;
  4200                           
  4201                           
  4202                           ;psect for function _INT_ISR
  4203  022E                     _INT_ISR:	
  4204  022E                     i1l1341:	
  4205                           ;incstack = 0
  4206                           ; Regs used in _INT_ISR: [wreg+status,2+status,0+pclath+cstack]
  4207                           
  4208                           
  4209                           ;mcc_generated_files/ext_int.c: 36:     (PIR0bits.INTF = 0);
  4210  022E  014E               	movlb	14	; select bank14
  4211  022F  100C               	bcf	12,0	;volatile
  4212  0230                     i1l1343:	
  4213                           
  4214                           ;mcc_generated_files/ext_int.c: 39:     INT_CallBack();
  4215  0230  3181  21E5  3182   	fcall	_INT_CallBack
  4216  0233                     i1l208:	
  4217  0233  0008               	return
  4218  0234                     __end_of_INT_ISR:	
  4219                           
  4220                           	psect	text21
  4221  01E5                     __ptext21:	
  4222 ;; *************** function _INT_CallBack *****************
  4223 ;; Defined at:
  4224 ;;		line 43 in file "mcc_generated_files/ext_int.c"
  4225 ;; Parameters:    Size  Location     Type
  4226 ;;		None
  4227 ;; Auto vars:     Size  Location     Type
  4228 ;;		None
  4229 ;; Return value:  Size  Location     Type
  4230 ;;                  1    wreg      void 
  4231 ;; Registers used:
  4232 ;;		wreg, status,2, status,0, pclath, cstack
  4233 ;; Tracked objects:
  4234 ;;		On entry : 0/0
  4235 ;;		On exit  : 0/0
  4236 ;;		Unchanged: 0/0
  4237 ;; Data sizes:     COMMON   BANK0   BANK1   BANK2   BANK3   BANK4   BANK5   BANK6   BANK7   BANK8   BANK9  BANK10  BANK1
      +1  BANK12
  4238 ;;      Params:         0       0       0       0       0       0       0       0       0       0       0       0       
      +0       0
  4239 ;;      Locals:         0       0       0       0       0       0       0       0       0       0       0       0       
      +0       0
  4240 ;;      Temps:          0       0       0       0       0       0       0       0       0       0       0       0       
      +0       0
  4241 ;;      Totals:         0       0       0       0       0       0       0       0       0       0       0       0       
      +0       0
  4242 ;;Total ram usage:        0 bytes
  4243 ;; Hardware stack levels used:    1
  4244 ;; Hardware stack levels required when called:    2
  4245 ;; This function calls:
  4246 ;;		Absolute function
  4247 ;;		_INT_DefaultInterruptHandler
  4248 ;; This function is called by:
  4249 ;;		_INT_ISR
  4250 ;; This function uses a non-reentrant model
  4251 ;;
  4252                           
  4253                           
  4254                           ;psect for function _INT_CallBack
  4255  01E5                     _INT_CallBack:	
  4256  01E5                     i1l1291:	
  4257                           ;incstack = 0
  4258                           ; Regs used in _INT_CallBack: [wreg+status,2+status,0+pclath+cstack]
  4259                           
  4260                           
  4261                           ;mcc_generated_files/ext_int.c: 46:     if(INT_InterruptHandler)
  4262  01E5  0140               	movlb	0	; select bank0
  4263  01E6  0820               	movf	_INT_InterruptHandler,w
  4264  01E7  0421               	iorwf	_INT_InterruptHandler+1,w
  4265  01E8  1903               	btfsc	3,2
  4266  01E9  29EB               	goto	u27_21
  4267  01EA  29EC               	goto	u27_20
  4268  01EB                     u27_21:	
  4269  01EB  29F1               	goto	i1l212
  4270  01EC                     u27_20:	
  4271  01EC                     i1l1293:	
  4272                           
  4273                           ;mcc_generated_files/ext_int.c: 47:     {;mcc_generated_files/ext_int.c: 48:         INT
      +                          _InterruptHandler();
  4274  01EC  0821               	movf	_INT_InterruptHandler+1,w
  4275  01ED  008A               	movwf	10
  4276  01EE  0820               	movf	_INT_InterruptHandler,w
  4277  01EF  000A               	callw
  4278  01F0  3181               	pagesel	$
  4279  01F1                     i1l212:	
  4280  01F1  0008               	return
  4281  01F2                     __end_of_INT_CallBack:	
  4282                           
  4283                           	psect	text22
  4284  01CA                     __ptext22:	
  4285 ;; *************** function _INT_DefaultInterruptHandler *****************
  4286 ;; Defined at:
  4287 ;;		line 55 in file "mcc_generated_files/ext_int.c"
  4288 ;; Parameters:    Size  Location     Type
  4289 ;;		None
  4290 ;; Auto vars:     Size  Location     Type
  4291 ;;		None
  4292 ;; Return value:  Size  Location     Type
  4293 ;;                  1    wreg      void 
  4294 ;; Registers used:
  4295 ;;		wreg, status,2, status,0, pclath, cstack
  4296 ;; Tracked objects:
  4297 ;;		On entry : 0/0
  4298 ;;		On exit  : 0/0
  4299 ;;		Unchanged: 0/0
  4300 ;; Data sizes:     COMMON   BANK0   BANK1   BANK2   BANK3   BANK4   BANK5   BANK6   BANK7   BANK8   BANK9  BANK10  BANK1
      +1  BANK12
  4301 ;;      Params:         0       0       0       0       0       0       0       0       0       0       0       0       
      +0       0
  4302 ;;      Locals:         0       0       0       0       0       0       0       0       0       0       0       0       
      +0       0
  4303 ;;      Temps:          1       0       0       0       0       0       0       0       0       0       0       0       
      +0       0
  4304 ;;      Totals:         1       0       0       0       0       0       0       0       0       0       0       0       
      +0       0
  4305 ;;Total ram usage:        1 bytes
  4306 ;; Hardware stack levels used:    1
  4307 ;; Hardware stack levels required when called:    1
  4308 ;; This function calls:
  4309 ;;		_EUSART1_Write
  4310 ;; This function is called by:
  4311 ;;		_EXT_INT_Initialize
  4312 ;;		_INT_CallBack
  4313 ;; This function uses a non-reentrant model
  4314 ;;
  4315                           
  4316                           
  4317                           ;psect for function _INT_DefaultInterruptHandler
  4318  01CA                     _INT_DefaultInterruptHandler:	
  4319  01CA                     i1l1213:	
  4320                           ;incstack = 0
  4321                           ; Regs used in _INT_DefaultInterruptHandler: [wreg+status,2+status,0+pclath+cstack]
  4322                           
  4323                           
  4324                           ;mcc_generated_files/ext_int.c: 61:      if(PORTAbits.RA0 == 0){
  4325  01CA  0140               	movlb	0	; select bank0
  4326  01CB  180C               	btfsc	12,0	;volatile
  4327  01CC  29CE               	goto	u26_21
  4328  01CD  29CF               	goto	u26_20
  4329  01CE                     u26_21:	
  4330  01CE  29D7               	goto	i1l219
  4331  01CF                     u26_20:	
  4332  01CF                     i1l1215:	
  4333                           
  4334                           ;mcc_generated_files/ext_int.c: 62:          data = '4';
  4335  01CF  3034               	movlw	52
  4336  01D0  00F1               	movwf	??_INT_DefaultInterruptHandler
  4337  01D1  0871               	movf	??_INT_DefaultInterruptHandler,w
  4338  01D2  00A8               	movwf	_data
  4339  01D3                     i1l1217:	
  4340                           
  4341                           ;mcc_generated_files/ext_int.c: 63:          EUSART1_Write('t');
  4342  01D3  3074               	movlw	116
  4343  01D4  3181  21FC  3181   	fcall	_EUSART1_Write
  4344  01D7                     i1l219:	
  4345  01D7  0008               	return
  4346  01D8                     __end_of_INT_DefaultInterruptHandler:	
  4347                           
  4348                           	psect	text23
  4349  01FC                     __ptext23:	
  4350 ;; *************** function _EUSART1_Write *****************
  4351 ;; Defined at:
  4352 ;;		line 132 in file "mcc_generated_files/eusart1.c"
  4353 ;; Parameters:    Size  Location     Type
  4354 ;;  txData          1    wreg     unsigned char 
  4355 ;; Auto vars:     Size  Location     Type
  4356 ;;  txData          1    0[COMMON] unsigned char 
  4357 ;; Return value:  Size  Location     Type
  4358 ;;                  1    wreg      void 
  4359 ;; Registers used:
  4360 ;;		wreg
  4361 ;; Tracked objects:
  4362 ;;		On entry : 0/0
  4363 ;;		On exit  : 0/0
  4364 ;;		Unchanged: 0/0
  4365 ;; Data sizes:     COMMON   BANK0   BANK1   BANK2   BANK3   BANK4   BANK5   BANK6   BANK7   BANK8   BANK9  BANK10  BANK1
      +1  BANK12
  4366 ;;      Params:         0       0       0       0       0       0       0       0       0       0       0       0       
      +0       0
  4367 ;;      Locals:         1       0       0       0       0       0       0       0       0       0       0       0       
      +0       0
  4368 ;;      Temps:          0       0       0       0       0       0       0       0       0       0       0       0       
      +0       0
  4369 ;;      Totals:         1       0       0       0       0       0       0       0       0       0       0       0       
      +0       0
  4370 ;;Total ram usage:        1 bytes
  4371 ;; Hardware stack levels used:    1
  4372 ;; This function calls:
  4373 ;;		Nothing
  4374 ;; This function is called by:
  4375 ;;		_INT_DefaultInterruptHandler
  4376 ;; This function uses a non-reentrant model
  4377 ;;
  4378                           
  4379                           
  4380                           ;psect for function _EUSART1_Write
  4381  01FC                     _EUSART1_Write:	
  4382                           
  4383                           ;incstack = 0
  4384                           ; Regs used in _EUSART1_Write: [wreg]
  4385                           ;EUSART1_Write@txData stored from wreg
  4386  01FC  00F0               	movwf	EUSART1_Write@txData
  4387  01FD                     i1l1201:	
  4388  01FD                     i1l168:	
  4389                           ;mcc_generated_files/eusart1.c: 135:     {;mcc_generated_files/eusart1.c: 136:     }
  4390                           
  4391                           
  4392                           ;mcc_generated_files/eusart1.c: 134:     while(0 == PIR3bits.TX1IF)
  4393  01FD  014E               	movlb	14	; select bank14
  4394  01FE  1E0F               	btfss	15,4	;volatile
  4395  01FF  2A01               	goto	u25_21
  4396  0200  2A02               	goto	u25_20
  4397  0201                     u25_21:	
  4398  0201  29FD               	goto	i1l168
  4399  0202                     u25_20:	
  4400  0202                     i1l1203:	
  4401                           
  4402                           ;mcc_generated_files/eusart1.c: 138:     TX1REG = txData;
  4403  0202  0870               	movf	EUSART1_Write@txData,w
  4404  0203  0142               	movlb	2	; select bank2
  4405  0204  009A               	movwf	26	;volatile
  4406  0205                     i1l171:	
  4407  0205  0008               	return
  4408  0206                     __end_of_EUSART1_Write:	
  4409  007E                     btemp	set	126	;btemp
  4410  007E                     int$flags	set	126
  4411  007E                     wtemp0	set	126


Data Sizes:
    Strings     0
    Constant    0
    Data        0
    BSS         7
    Persistent  41
    Stack       0

Auto Spaces:
    Space          Size  Autos    Used
    COMMON           14     11      12
    BANK0            80     10      25
    BANK1            80      0       0
    BANK2            80      0       0
    BANK3            80      0       0
    BANK4            80      0       0
    BANK5            80      0       0
    BANK6            80      0       0
    BANK7            80      0       0
    BANK8            80      0       0
    BANK9            80      0       0
    BANK10           80      0       0
    BANK11           80      0       0
    BANK12           48      0       0

Pointer List with Targets:

    INT_SetInterruptHandler@InterruptHandler	PTR FTN()void  size(2) Largest target is 1
		 -> INT_DefaultInterruptHandler(), 

    INT_InterruptHandler	PTR FTN()void  size(2) Largest target is 1
		 -> INT_DefaultInterruptHandler(), Absolute function(), 

    EUSART1_SetErrorHandler@interruptHandler	PTR FTN()void  size(2) Largest target is 1
		 -> EUSART1_DefaultErrorHandler(), 

    EUSART1_ErrorHandler	PTR FTN()void  size(2) Largest target is 1
		 -> Absolute function(), EUSART1_DefaultErrorHandler(), 

    EUSART1_SetOverrunErrorHandler@interruptHandler	PTR FTN()void  size(2) Largest target is 1
		 -> EUSART1_DefaultOverrunErrorHandler(), 

    EUSART1_OverrunErrorHandler	PTR FTN()void  size(2) Largest target is 1
		 -> Absolute function(), EUSART1_DefaultOverrunErrorHandler(), 

    EUSART1_SetFramingErrorHandler@interruptHandler	PTR FTN()void  size(2) Largest target is 1
		 -> EUSART1_DefaultFramingErrorHandler(), 

    EUSART1_FramingErrorHandler	PTR FTN()void  size(2) Largest target is 1
		 -> Absolute function(), EUSART1_DefaultFramingErrorHandler(), 


Critical Paths under _main in COMMON

    _main->_motorController
    _motorController->_direction
    _EXT_INT_Initialize->_INT_SetInterruptHandler
    _EUSART1_Initialize->_EUSART1_SetErrorHandler
    _EUSART1_Initialize->_EUSART1_SetFramingErrorHandler
    _EUSART1_Initialize->_EUSART1_SetOverrunErrorHandler
    _Home->_led
    _Home->_motorB_Back

Critical Paths under _INTERRUPT_InterruptManager in COMMON

    _INT_CallBack->_INT_DefaultInterruptHandler
    _INT_DefaultInterruptHandler->_EUSART1_Write

Critical Paths under _main in BANK0

    _main->_motorController

Critical Paths under _INTERRUPT_InterruptManager in BANK0

    None.

Critical Paths under _main in BANK1

    None.

Critical Paths under _INTERRUPT_InterruptManager in BANK1

    None.

Critical Paths under _main in BANK2

    None.

Critical Paths under _INTERRUPT_InterruptManager in BANK2

    None.

Critical Paths under _main in BANK3

    None.

Critical Paths under _INTERRUPT_InterruptManager in BANK3

    None.

Critical Paths under _main in BANK4

    None.

Critical Paths under _INTERRUPT_InterruptManager in BANK4

    None.

Critical Paths under _main in BANK5

    None.

Critical Paths under _INTERRUPT_InterruptManager in BANK5

    None.

Critical Paths under _main in BANK6

    None.

Critical Paths under _INTERRUPT_InterruptManager in BANK6

    None.

Critical Paths under _main in BANK7

    None.

Critical Paths under _INTERRUPT_InterruptManager in BANK7

    None.

Critical Paths under _main in BANK8

    None.

Critical Paths under _INTERRUPT_InterruptManager in BANK8

    None.

Critical Paths under _main in BANK9

    None.

Critical Paths under _INTERRUPT_InterruptManager in BANK9

    None.

Critical Paths under _main in BANK10

    None.

Critical Paths under _INTERRUPT_InterruptManager in BANK10

    None.

Critical Paths under _main in BANK11

    None.

Critical Paths under _INTERRUPT_InterruptManager in BANK11

    None.

Critical Paths under _main in BANK12

    None.

Critical Paths under _INTERRUPT_InterruptManager in BANK12

    None.

Call Graph Tables:

 ---------------------------------------------------------------------------------
 (Depth) Function   	        Calls       Base Space   Used Autos Params    Refs
 ---------------------------------------------------------------------------------
 (0) _main                                                 8     8      0    2517
                                              9 COMMON     2     2      0
                                              8 BANK0      2     2      0
                 _EUSART1_Initialize
                       _EUSART1_Read
                               _Home
                  _SYSTEM_Initialize
                    _motorController
                      _motors_Enable
 ---------------------------------------------------------------------------------
 (1) _motors_Enable                                        0     0      0       0
 ---------------------------------------------------------------------------------
 (1) _motorController                                     13     5      8    1762
                                              4 COMMON     5     5      0
                                              0 BANK0      8     0      8
                          _direction
 ---------------------------------------------------------------------------------
 (2) _direction                                            2     0      2     484
                                              2 COMMON     2     0      2
 ---------------------------------------------------------------------------------
 (1) _SYSTEM_Initialize                                    0     0      0     392
                 _EUSART1_Initialize
                 _EXT_INT_Initialize
              _OSCILLATOR_Initialize
             _PIN_MANAGER_Initialize
                     _PMD_Initialize
 ---------------------------------------------------------------------------------
 (2) _PMD_Initialize                                       0     0      0       0
 ---------------------------------------------------------------------------------
 (2) _PIN_MANAGER_Initialize                               0     0      0       0
 ---------------------------------------------------------------------------------
 (2) _OSCILLATOR_Initialize                                0     0      0       0
 ---------------------------------------------------------------------------------
 (2) _EXT_INT_Initialize                                   0     0      0      98
            _INT_SetInterruptHandler
 ---------------------------------------------------------------------------------
 (3) _INT_SetInterruptHandler                              2     0      2      98
                                              2 COMMON     2     0      2
 ---------------------------------------------------------------------------------
 (2) _EUSART1_Initialize                                   0     0      0     294
            _EUSART1_SetErrorHandler
     _EUSART1_SetFramingErrorHandler
     _EUSART1_SetOverrunErrorHandler
 ---------------------------------------------------------------------------------
 (3) _EUSART1_SetOverrunErrorHandler                       2     0      2      98
                                              2 COMMON     2     0      2
 ---------------------------------------------------------------------------------
 (3) _EUSART1_SetFramingErrorHandler                       2     0      2      98
                                              2 COMMON     2     0      2
 ---------------------------------------------------------------------------------
 (3) _EUSART1_SetErrorHandler                              2     0      2      98
                                              2 COMMON     2     0      2
 ---------------------------------------------------------------------------------
 (1) _Home                                                 1     1      0      66
                                              3 COMMON     1     1      0
                                _led
                        _motorA_Back
                        _motorB_Back
 ---------------------------------------------------------------------------------
 (2) _motorB_Back                                          1     1      0       0
                                              2 COMMON     1     1      0
 ---------------------------------------------------------------------------------
 (2) _motorA_Back                                          0     0      0       0
 ---------------------------------------------------------------------------------
 (2) _led                                                  1     1      0      44
                                              2 COMMON     1     1      0
 ---------------------------------------------------------------------------------
 (1) _EUSART1_Read                                         0     0      0       0
 ---------------------------------------------------------------------------------
 Estimated maximum stack depth 3
 ---------------------------------------------------------------------------------
 (Depth) Function   	        Calls       Base Space   Used Autos Params    Refs
 ---------------------------------------------------------------------------------
 (4) _INTERRUPT_InterruptManager                           0     0      0      22
                            _INT_ISR
 ---------------------------------------------------------------------------------
 (5) _INT_ISR                                              0     0      0      22
                       _INT_CallBack
 ---------------------------------------------------------------------------------
 (6) _INT_CallBack                                         0     0      0      22
                   Absolute function *
        _INT_DefaultInterruptHandler *
 ---------------------------------------------------------------------------------
 (7) _INT_DefaultInterruptHandler                          1     1      0      22
                                              1 COMMON     1     1      0
                      _EUSART1_Write
 ---------------------------------------------------------------------------------
 (8) _EUSART1_Write                                        1     1      0      22
                                              0 COMMON     1     1      0
 ---------------------------------------------------------------------------------
 (7) Absolute function(Fake)                               0     0      0       0
 ---------------------------------------------------------------------------------
 Estimated maximum stack depth 8
 ---------------------------------------------------------------------------------

 Call Graph Graphs:

 _main (ROOT)
   _EUSART1_Initialize
     _EUSART1_SetErrorHandler
     _EUSART1_SetFramingErrorHandler
     _EUSART1_SetOverrunErrorHandler
   _EUSART1_Read
   _Home
     _led
     _motorA_Back
     _motorB_Back
   _SYSTEM_Initialize
     _EUSART1_Initialize
       _EUSART1_SetErrorHandler
       _EUSART1_SetFramingErrorHandler
       _EUSART1_SetOverrunErrorHandler
     _EXT_INT_Initialize
       _INT_SetInterruptHandler
     _OSCILLATOR_Initialize
     _PIN_MANAGER_Initialize
     _PMD_Initialize
   _motorController
     _direction
   _motors_Enable

 _INTERRUPT_InterruptManager (ROOT)
   _INT_ISR
     _INT_CallBack
       Absolute function(Fake) *
       _INT_DefaultInterruptHandler *
         _EUSART1_Write

 Address spaces:
Name               Size   Autos  Total    Cost      Usage
BIGRAM             3F0      0       0       0        0.0%
NULL                 0      0       0       0        0.0%
CODE                 0      0       0       0        0.0%
BITCOMMON            E      0       0       1        0.0%
BITSFR0              0      0       0       1        0.0%
SFR0                 0      0       0       1        0.0%
COMMON               E      B       C       2       85.7%
BITSFR1              0      0       0       2        0.0%
SFR1                 0      0       0       2        0.0%
BITSFR2              0      0       0       3        0.0%
SFR2                 0      0       0       3        0.0%
STACK                0      0       0       3        0.0%
BITSFR3              0      0       0       4        0.0%
SFR3                 0      0       0       4        0.0%
ABS                  0      0      25       4        0.0%
BITBANK0            50      0       0       5        0.0%
BITSFR4              0      0       0       5        0.0%
SFR4                 0      0       0       5        0.0%
BANK0               50      A      19       6       31.3%
BITSFR5              0      0       0       6        0.0%
SFR5                 0      0       0       6        0.0%
BITBANK1            50      0       0       7        0.0%
BITSFR6              0      0       0       7        0.0%
SFR6                 0      0       0       7        0.0%
BANK1               50      0       0       8        0.0%
BITSFR7              0      0       0       8        0.0%
SFR7                 0      0       0       8        0.0%
BITBANK2            50      0       0       9        0.0%
BITSFR8              0      0       0       9        0.0%
SFR8                 0      0       0       9        0.0%
BANK2               50      0       0      10        0.0%
BITSFR9              0      0       0      10        0.0%
SFR9                 0      0       0      10        0.0%
BITBANK3            50      0       0      11        0.0%
BITSFR10             0      0       0      11        0.0%
SFR10                0      0       0      11        0.0%
BANK3               50      0       0      12        0.0%
BITSFR11             0      0       0      12        0.0%
SFR11                0      0       0      12        0.0%
BITBANK4            50      0       0      13        0.0%
BITSFR12             0      0       0      13        0.0%
SFR12                0      0       0      13        0.0%
BANK4               50      0       0      14        0.0%
BITSFR13             0      0       0      14        0.0%
SFR13                0      0       0      14        0.0%
BITBANK5            50      0       0      15        0.0%
BITSFR14             0      0       0      15        0.0%
SFR14                0      0       0      15        0.0%
BANK5               50      0       0      16        0.0%
BITSFR15             0      0       0      16        0.0%
SFR15                0      0       0      16        0.0%
BITBANK6            50      0       0      17        0.0%
BITSFR16             0      0       0      17        0.0%
SFR16                0      0       0      17        0.0%
BANK6               50      0       0      18        0.0%
BITSFR17             0      0       0      18        0.0%
SFR17                0      0       0      18        0.0%
BITBANK7            50      0       0      19        0.0%
BITSFR18             0      0       0      19        0.0%
SFR18                0      0       0      19        0.0%
BANK7               50      0       0      20        0.0%
BITSFR19             0      0       0      20        0.0%
SFR19                0      0       0      20        0.0%
BITBANK8            50      0       0      21        0.0%
BITSFR20             0      0       0      21        0.0%
SFR20                0      0       0      21        0.0%
BANK8               50      0       0      22        0.0%
BITSFR21             0      0       0      22        0.0%
SFR21                0      0       0      22        0.0%
BITBANK9            50      0       0      23        0.0%
BITSFR22             0      0       0      23        0.0%
SFR22                0      0       0      23        0.0%
BANK9               50      0       0      24        0.0%
BITSFR23             0      0       0      24        0.0%
SFR23                0      0       0      24        0.0%
BITBANK10           50      0       0      25        0.0%
BITSFR24             0      0       0      25        0.0%
SFR24                0      0       0      25        0.0%
BANK10              50      0       0      26        0.0%
BITSFR25             0      0       0      26        0.0%
SFR25                0      0       0      26        0.0%
BITBANK11           50      0       0      27        0.0%
BITSFR26             0      0       0      27        0.0%
SFR26                0      0       0      27        0.0%
BANK11              50      0       0      28        0.0%
BITSFR27             0      0       0      28        0.0%
SFR27                0      0       0      28        0.0%
BITBANK12           30      0       0      29        0.0%
BITSFR28             0      0       0      29        0.0%
SFR28                0      0       0      29        0.0%
BANK12              30      0       0      30        0.0%
BITSFR29             0      0       0      30        0.0%
SFR29                0      0       0      30        0.0%
BITSFR30             0      0       0      31        0.0%
SFR30                0      0       0      31        0.0%
DATA                 0      0      25      31        0.0%
BITSFR31             0      0       0      32        0.0%
SFR31                0      0       0      32        0.0%
BITSFR32             0      0       0      33        0.0%
SFR32                0      0       0      33        0.0%
BITSFR33             0      0       0      34        0.0%
SFR33                0      0       0      34        0.0%
BITSFR34             0      0       0      35        0.0%
SFR34                0      0       0      35        0.0%
BITSFR35             0      0       0      36        0.0%
SFR35                0      0       0      36        0.0%
BITSFR36             0      0       0      37        0.0%
SFR36                0      0       0      37        0.0%
BITSFR37             0      0       0      38        0.0%
SFR37                0      0       0      38        0.0%
BITSFR38             0      0       0      39        0.0%
SFR38                0      0       0      39        0.0%
BITSFR39             0      0       0      40        0.0%
SFR39                0      0       0      40        0.0%
BITSFR40             0      0       0      41        0.0%
SFR40                0      0       0      41        0.0%
BITSFR41             0      0       0      42        0.0%
SFR41                0      0       0      42        0.0%
BITSFR42             0      0       0      43        0.0%
SFR42                0      0       0      43        0.0%
BITSFR43             0      0       0      44        0.0%
SFR43                0      0       0      44        0.0%
BITSFR44             0      0       0      45        0.0%
SFR44                0      0       0      45        0.0%
BITSFR45             0      0       0      46        0.0%
SFR45                0      0       0      46        0.0%
BITSFR46             0      0       0      47        0.0%
SFR46                0      0       0      47        0.0%
BITSFR47             0      0       0      48        0.0%
SFR47                0      0       0      48        0.0%
BITSFR48             0      0       0      49        0.0%
SFR48                0      0       0      49        0.0%
BITSFR49             0      0       0      50        0.0%
SFR49                0      0       0      50        0.0%
BITSFR50             0      0       0      51        0.0%
SFR50                0      0       0      51        0.0%
BITSFR51             0      0       0      52        0.0%
SFR51                0      0       0      52        0.0%
BITSFR52             0      0       0      53        0.0%
SFR52                0      0       0      53        0.0%
BITSFR53             0      0       0      54        0.0%
SFR53                0      0       0      54        0.0%
BITSFR54             0      0       0      55        0.0%
SFR54                0      0       0      55        0.0%
BITSFR55             0      0       0      56        0.0%
SFR55                0      0       0      56        0.0%
BITSFR56             0      0       0      57        0.0%
SFR56                0      0       0      57        0.0%
BITSFR57             0      0       0      58        0.0%
SFR57                0      0       0      58        0.0%
BITSFR58             0      0       0      59        0.0%
SFR58                0      0       0      59        0.0%
BITSFR59             0      0       0      60        0.0%
SFR59                0      0       0      60        0.0%
BITSFR60             0      0       0      61        0.0%
SFR60                0      0       0      61        0.0%
BITSFR61             0      0       0      62        0.0%
SFR61                0      0       0      62        0.0%
BITSFR62             0      0       0      63        0.0%
SFR62                0      0       0      63        0.0%
BITSFR63             0      0       0      64        0.0%
SFR63                0      0       0      64        0.0%


Microchip Technology PIC Macro Assembler V2.10 build 88905656 
Symbol Table                                                                                   Fri May 01 16:42:46 2020

                                   __CFG_CP$OFF 0000                                              l40 01FB  
                                            l43 0215                                              l37 01AC  
                                            l98 0112                                 ??_motors_Enable 0072  
                                   __CFG_LVP$ON 0000                                             l222 01E4  
                                           l310 00D3                                             l215 021B  
                                           l303 00A9                                             l144 015A  
                                           l312 00BB                                             l161 01AD  
                                           l305 0099                                             l401 0208  
                                           l315 00C7                                             l411 020D  
                                           l403 0209                                             l308 00A1  
                                           l165 01BB                                             l317 00E2  
                                           l405 020A                                             l183 0227  
                                           l407 020B                                             l361 01C5  
                                           l281 012D                                             l273 0119  
                                           l409 020C                                             l362 01C9  
                                           l370 0181                                             l186 0221  
                                           l371 0189                                             l356 01BC  
                                           l381 019C                                             l365 0174  
                                           l189 022D                                             l285 0137  
                                           l277 0123                                             l358 01BE  
                                           l390 0172                                             l375 0191  
                                           l367 0176                                             l287 0139  
                                           l392 0173                                             l379 019A  
                                           l399 0206                                             u320 0191  
                                           u321 0190                                             u330 019A  
                                           u331 0199                                             u340 01B2  
                                           u500 00E2                                             u341 01B1  
                                           u501 00E1                                             u350 01B8  
                                           u351 01B7                                             u505 00DE  
                                           u450 0119                                             u451 0118  
                                           u380 0169                                             u460 0123  
                                           u381 0168                                             u461 0122  
                                           u390 0172                                             u470 012D  
                                           u607 01C0                                             u391 0171  
                                           u471 012C                                             u480 0137  
                                           u617 01C6                                             u481 0136  
                                           u537 007C                                             u490 00B8  
                                           u491 00B7                                             u547 009C  
                                           u557 00A2                                             u567 00C0  
                                           u495 00B4                                             u577 00CA  
                                           u587 017A                                             u597 0184  
                                           _led 018A                                             _foo 0035  
                       __size_of_PMD_Initialize 0008                                    __CFG_BORV$LO 0000  
                                           wreg 0009                                   __CFG_BBEN$OFF 0000  
                                  __CFG_ZCD$OFF 0000                                            l1211 0216  
                                          l1205 0222                                            l1221 00E3  
                                          l1311 018B                                            l1303 01BF  
                                          l1207 021C                                            l1231 00F0  
                                          l1223 00E7                                            l1313 0194  
                                          l1305 01C3                                            l1209 0228  
                                          l1241 00FA                                            l1233 00F2  
                                          l1225 00E9                                            l1321 01A6  
                                          l1331 01B2                                            l1307 0177  
                                          l1251 0102                                            l1243 00FB  
                                          l1235 00F6                                            l1227 00EB  
                                          l1219 020E                                            l1323 01A9  
                                          l1315 019D                                            l1333 01B3  
                                          l1309 017F                                            l1261 010F  
                                          l1253 0104                                            l1245 00FC  
                                          l1237 00F8                                            l1229 00ED  
                                          l1317 01A0                                            l1421 0126  
                                          l1335 01B8                                            l1271 01FA  
                                          l1263 01F2                                            l1255 0106  
                                          l1247 00FE                                            l1239 00F9  
                                          l1319 01A3                                            l1423 0130  
                                          l1431 009F                                            l1337 01BA  
                                          l1329 01AD                                            l1361 0161  
                                          l1281 0143                                            l1273 01D8  
                                          l1265 01F5                                            l1257 0108  
                                          l1249 0100                                            l1417 0113  
                                          l1433 00B8                                            l1425 0086  
                                          l1363 0164                                            l1283 0144  
                                          l1275 01DB                                            l1267 01F6  
                                          l1259 010C                                            l1419 011C  
                                          l1435 00BD                                            l1427 0096  
                                          l1451 0022                                            l1365 016A  
                                          l1285 014B                                            l1277 01E2  
                                          l1269 01F9                                            l1437 00C5  
                                          l1429 009B                                            l1461 0031  
                                          l1453 0028                                            l1367 016D  
                                          l1359 015C                                            l1287 0152  
                                          l1279 013A                                            l1471 0061  
                                          l1463 0034                                            l1455 0029  
                                          l1289 0159                                            l1473 0075  
                                          l1465 0038                                            l1457 002A  
                                          l1475 0077                                            l1467 004C  
                                          l1459 002A                                            l1469 004E  
                                          ?_led 0070                                            _LATA 0018  
                                          _LATB 0019                                 __end_of_INT_ISR 0234  
                                          _LATC 001A                                            _PMD0 0796  
                                          _PMD1 0797                                            _PMD2 0798  
                                          _PMD3 0799                                            _PMD4 079A  
                                          _PMD5 079B                                            _WPUA 1F39  
                                          _WPUB 1F44                                            _WPUC 1F4F  
                                          _WPUE 1F65                                   _EUSART1_Write 01FC  
                                          _Home 015B                                   __CFG_FCMEN$ON 0000  
                                          _data 0028                                            _main 0022  
                                 ?_EUSART1_Read 0070                                            led@a 0072  
                                          btemp 007E                                   __CFG_BOREN$ON 0000  
           __end_of_INT_DefaultInterruptHandler 01D8                     _INT_DefaultInterruptHandler 01CA  
                                          start 0014                 __end_of_INT_SetInterruptHandler 021C  
                               _motorController 0086                                   __CFG_CSWEN$ON 0000  
                                 __CFG_MCLRE$ON 0000                                           ??_led 0072  
                __size_of_OSCILLATOR_Initialize 000A                                           ?_Home 0070  
                 __end_of_OSCILLATOR_Initialize 01FC                                           ?_main 0070  
                                 __CFG_WDTE$OFF 0000                                           i1l212 01F1  
                                         i1l208 0233                                           i1l171 0205  
                                         i1l219 01D7                                           i1l235 0012  
                                         i1l168 01FD                                           _OSCEN 0891  
                                         u40_20 000B                                           u40_21 000A  
                                         u25_20 0202                                           u41_20 000F  
                                         u25_21 0201                                           u41_21 000E  
                                         u26_20 01CF                                           u26_21 01CE  
                                         u27_20 01EC                                           u27_21 01EB  
                                         _TRISA 0012                                           _TRISB 0013  
                                         _TRISC 0014                                           Home@a 0073  
                                 __CFG_WRTB$OFF 0000                                   __CFG_WRTC$OFF 0000  
                                ?_EUSART1_Write 0070                                           pclath 000A  
                                ??_EUSART1_Read 0072                                           status 0003  
                                         wtemp0 007E              _EUSART1_DefaultFramingErrorHandler 0000  
                               __initialization 0016                                    __end_of_Home 0174  
                    __end_of_EUSART1_Initialize 015B                                    __end_of_main 0086  
                                __CFG_SAFEN$OFF 0000                     ?_INTERRUPT_InterruptManager 0070  
                                        ??_Home 0073                                          ??_main 0079  
                                     ??_INT_ISR 0072                                          _ANSELA 1F38  
                                        _ANSELB 1F43                                          _ANSELC 1F4E  
                            __CFG_RSTOSC$HFINT1 0000                                          _RC1REG 0119  
                                        _RC1STA 011D                                          i1l1201 01FD  
                                        i1l1203 0202                                          i1l1213 01CA  
                                        i1l1215 01CF                                          i1l1217 01D3  
                                        i1l1341 022E                                          i1l1343 0230  
                                        _ODCONA 1F3A                                          _ODCONB 1F45  
                                        i1l1291 01E5                                          i1l1371 000B  
                                        _ODCONC 1F50                                          _RC6PPS 1F26  
                                        i1l1293 01EC                                          i1l1373 000F  
                                        i1l1369 0006                                  __CFG_WDTCCS$SC 0000  
                                        _INLVLA 1F3C                                          _INLVLB 1F47  
                                        _INLVLC 1F52                                          _INLVLE 1F68  
                                        _INTPPS 1E90                         __end_of_motorController 00E3  
                                        _OSCFRQ 0893                                          _TX1REG 011A  
                                        _TX1STA 011E                                    ?_motorA_Back 0070  
                                __CFG_PWRTE$OFF 0000                                    ?_motorB_Back 0070  
                                __CFG_STVREN$ON 0000                        ?_EUSART1_SetErrorHandler 0072  
              ??_EUSART1_SetOverrunErrorHandler 0074                 ?_EUSART1_SetOverrunErrorHandler 0072  
                                 ?_INT_CallBack 0070                                  _PMD_Initialize 020E  
              __size_of_INT_SetInterruptHandler 0006                                 ??_EUSART1_Write 0070  
       INT_SetInterruptHandler@InterruptHandler 0072                               _SYSTEM_Initialize 019D  
                       __end_of__initialization 001E                              ?_SYSTEM_Initialize 0070  
                                __pcstackCOMMON 0070                             ??_SYSTEM_Initialize 0074  
                                ??_INT_CallBack 0072                          __end_of_PMD_Initialize 0216  
                          __end_of_EUSART1_Read 01BC                     __size_of_EXT_INT_Initialize 000D  
                            __size_of_direction 0027                       __end_of_SYSTEM_Initialize 01AD  
                                    __pbssBANK0 0031                                ?_motorController 0029  
               __end_of_EUSART1_SetErrorHandler 022E                                      __pmaintext 0022  
                               __CFG_PPS1WAY$ON 0000                                      __pintentry 0004  
                               ?_PMD_Initialize 0070                           __end_of_motors_Enable 020E  
        __end_of_EUSART1_SetFramingErrorHandler 0228         __size_of_EUSART1_SetFramingErrorHandler 0006  
                _EUSART1_SetFramingErrorHandler 0222                                         _SP1BRGH 011C  
                                       _SP1BRGL 011B                                         _INT_ISR 022E  
                                       _OSCCON1 088D                                         _OSCCON3 088F  
                                       _OSCSTAT 0890                                         _OSCTUNE 0892  
                                       _SLRCONA 1F3B                                         _SLRCONB 1F46  
                                       _SLRCONC 1F51                             motorController@dirA 002D  
                           motorController@dirB 002F                               __end_of_direction 013A  
                          __size_of_motorA_Back 000E                            __size_of_motorB_Back 0016  
                                       __ptext1 0206                                         __ptext2 0086  
                                       __ptext3 0113                                         __ptext4 019D  
                                       __ptext5 020E                                         __ptext6 00E3  
                                       __ptext7 01F2                                         __ptext8 01D8  
                                       __ptext9 0216                                motorController@i 0075  
                               __CFG_WRTAPP$OFF 0000                           _OSCILLATOR_Initialize 01F2  
                                  __size_of_led 0013                              _EUSART1_Initialize 013A  
                      ??_PIN_MANAGER_Initialize 0072                                 __CFG_WRTSAF$OFF 0000  
                       _INT_SetInterruptHandler 0216                      __size_of_SYSTEM_Initialize 0010  
                          end_of_initialization 001E                             ?_EUSART1_Initialize 0070  
                   _EUSART1_OverrunErrorHandler 0024                            __end_of_INT_CallBack 01F2  
                         __size_of_EUSART1_Read 000F                            ??_EUSART1_Initialize 0074  
                         __CFG_WDTCPS$WDTCPS_31 0000                                       _PORTAbits 000C  
                                    direction@a 0072                           motorController@stepsA 0029  
                         motorController@stepsB 002B                __size_of_EUSART1_SetErrorHandler 0006  
                           EUSART1_Write@txData 0070                                __CFG_FEXTOSC$OFF 0000  
                                  _EUSART1_Read 01AD                          ?_OSCILLATOR_Initialize 0070  
                     ??_INT_SetInterruptHandler 0074                             start_initialization 0016  
               __size_of_PIN_MANAGER_Initialize 0030                                     __end_of_led 019D  
                         __end_of_EUSART1_Write 0206                    ?_INT_DefaultInterruptHandler 0070  
                              __CFG_LPBOREN$OFF 0000                                ??_PMD_Initialize 0072  
                    __end_of_EXT_INT_Initialize 01E5                                     __pbssCOMMON 007B  
                                     ___latbits 0002                                        ?_INT_ISR 0070  
                                 __pcstackBANK0 0029                           __size_of_INT_CallBack 000D  
              ??_EUSART1_SetFramingErrorHandler 0074                 ?_EUSART1_SetFramingErrorHandler 0072  
                                     __pnvBANK0 0020                          _PIN_MANAGER_Initialize 00E3  
                 ??_INT_DefaultInterruptHandler 0071                        __size_of_motorController 005D  
                                     _direction 0113                    ??_INTERRUPT_InterruptManager 0072  
                                  _INT_CallBack 01E5                                        _BAUD1CON 011F  
            _EUSART1_DefaultOverrunErrorHandler 0000                            _EUSART1_ErrorHandler 0022  
                       _EUSART1_SetErrorHandler 0228                                        _LATAbits 0018  
       EUSART1_SetErrorHandler@interruptHandler 0072                                        _LATBbits 0019  
                                      _LATCbits 001A                                        _PIE0bits 0716  
                        __size_of_motors_Enable 0008                                   ??_motorA_Back 0072  
                                 ??_motorB_Back 0072             __size_of_INTERRUPT_InterruptManager 0010  
                                      _PIR0bits 070C                                        _PIR3bits 070F  
                                      _RX1DTPPS 1ECB                               __CFG_BBSIZE$BB512 0000  
                          motorController@i_511 0077                                      ?_direction 0072  
          __size_of_INT_DefaultInterruptHandler 000E                                __size_of_INT_ISR 0006  
                       ??_OSCILLATOR_Initialize 0072                             __end_of_motorA_Back 01CA  
                           __end_of_motorB_Back 018A                     __size_of_EUSART1_Initialize 0021  
                             ??_motorController 0074                       ??_EUSART1_SetErrorHandler 0074  
                                 _motors_Enable 0206                     _EUSART1_DefaultErrorHandler 0000  
                                      __ptext10 013A                                        __ptext11 021C  
                                      __ptext20 022E                                        __ptext12 0222  
                                      __ptext21 01E5                                        __ptext13 0228  
                                      __ptext22 01CA                                        __ptext14 015B  
                                      __ptext23 01FC                                        __ptext15 0174  
                                      __ptext16 01BC                                        __ptext17 018A  
                                      __ptext18 01AD                                   __size_of_Home 0019  
                                      _currentA 0033                                        _currentB 0031  
                                 __size_of_main 0064                            __CFG_WDTCWS$WDTCWS_7 0000  
                                    _RC1STAbits 011D  EUSART1_SetOverrunErrorHandler@interruptHandler 0072  
                                      int$flags 007E                                     ??_direction 0074  
            __end_of_INTERRUPT_InterruptManager 0014                      _INTERRUPT_InterruptManager 0004  
                   _EUSART1_FramingErrorHandler 0026                                  ?_motors_Enable 0070  
                                    _INTCONbits 000B                            _INT_InterruptHandler 0020  
                            _EXT_INT_Initialize 01D8                                        intlevel1 0000  
                       ?_PIN_MANAGER_Initialize 0070                               __CFG_CLKOUTEN$OFF 0000  
                           ?_EXT_INT_Initialize 0070          __end_of_EUSART1_SetOverrunErrorHandler 0222  
       __size_of_EUSART1_SetOverrunErrorHandler 0006                  _EUSART1_SetOverrunErrorHandler 021C  
                                   _motorA_Back 01BC                                     _motorB_Back 0174  
EUSART1_SetFramingErrorHandler@interruptHandler 0072                        ?_INT_SetInterruptHandler 0072  
                        __size_of_EUSART1_Write 000A                              _eusart1RxLastError 007B  
                          ??_EXT_INT_Initialize 0074                                      _TX1STAbits 011E  
                __end_of_PIN_MANAGER_Initialize 0113  
